
Phaethon_Ccode.elf:     file format elf32-avr

Sections:
Idx Name          Size      VMA       LMA       File off  Algn
  0 .data         000000f0  00800100  000067fc  000068b0  2**0
                  CONTENTS, ALLOC, LOAD, DATA
  1 .text         000067fc  00000000  00000000  000000b4  2**1
                  CONTENTS, ALLOC, LOAD, READONLY, CODE
  2 .bss          000001e0  008001f0  008001f0  000069a0  2**0
                  ALLOC
  3 .eeprom       00000019  00810000  00810000  000069a0  2**0
                  CONTENTS, ALLOC, LOAD, DATA
  4 .stab         0000bfd0  00000000  00000000  000069bc  2**2
                  CONTENTS, READONLY, DEBUGGING
  5 .stabstr      00009441  00000000  00000000  0001298c  2**0
                  CONTENTS, READONLY, DEBUGGING
  6 .comment      00000042  00000000  00000000  0001bdcd  2**0
                  CONTENTS, READONLY

Disassembly of section .text:

00000000 <__vectors>:
       0:	0c 94 30 1c 	jmp	0x3860	; 0x3860 <__ctors_end>
       4:	0c 94 fe 21 	jmp	0x43fc	; 0x43fc <__vector_1>
       8:	0c 94 1c 22 	jmp	0x4438	; 0x4438 <__vector_2>
       c:	0c 94 4d 1c 	jmp	0x389a	; 0x389a <__bad_interrupt>
      10:	0c 94 4d 1c 	jmp	0x389a	; 0x389a <__bad_interrupt>
      14:	0c 94 4d 1c 	jmp	0x389a	; 0x389a <__bad_interrupt>
      18:	0c 94 4d 1c 	jmp	0x389a	; 0x389a <__bad_interrupt>
      1c:	0c 94 4d 1c 	jmp	0x389a	; 0x389a <__bad_interrupt>
      20:	0c 94 4d 1c 	jmp	0x389a	; 0x389a <__bad_interrupt>
      24:	0c 94 4d 1c 	jmp	0x389a	; 0x389a <__bad_interrupt>
      28:	0c 94 4d 1c 	jmp	0x389a	; 0x389a <__bad_interrupt>
      2c:	0c 94 66 1c 	jmp	0x38cc	; 0x38cc <__vector_11>
      30:	0c 94 4d 1c 	jmp	0x389a	; 0x389a <__bad_interrupt>
      34:	0c 94 4d 1c 	jmp	0x389a	; 0x389a <__bad_interrupt>
      38:	0c 94 4d 1c 	jmp	0x389a	; 0x389a <__bad_interrupt>
      3c:	0c 94 4d 1c 	jmp	0x389a	; 0x389a <__bad_interrupt>
      40:	0c 94 4d 1c 	jmp	0x389a	; 0x389a <__bad_interrupt>
      44:	0c 94 4d 1c 	jmp	0x389a	; 0x389a <__bad_interrupt>
      48:	0c 94 4d 1c 	jmp	0x389a	; 0x389a <__bad_interrupt>
      4c:	0c 94 4d 1c 	jmp	0x389a	; 0x389a <__bad_interrupt>
      50:	0c 94 4d 1c 	jmp	0x389a	; 0x389a <__bad_interrupt>
      54:	0c 94 4d 1c 	jmp	0x389a	; 0x389a <__bad_interrupt>
      58:	0c 94 4d 1c 	jmp	0x389a	; 0x389a <__bad_interrupt>
      5c:	0c 94 4d 1c 	jmp	0x389a	; 0x389a <__bad_interrupt>
      60:	0c 94 4d 1c 	jmp	0x389a	; 0x389a <__bad_interrupt>
      64:	0c 94 4d 1c 	jmp	0x389a	; 0x389a <__bad_interrupt>

00000068 <__trampolines_end>:
      68:	53 65       	ori	r21, 0x53	; 83
      6a:	74 20       	and	r7, r4
      6c:	64 61       	ori	r22, 0x14	; 20
      6e:	79 20       	and	r7, r9
      70:	3d 20       	and	r3, r13
      72:	25 73       	andi	r18, 0x35	; 53
	...

00000075 <__c.3900>:
      75:	53 65 74 20 6d 69 6e 75 74 65 20 3d 20 25 30 32     Set minute = %02
      85:	64 00                                               d.

00000087 <__c.3898>:
      87:	53 65 74 20 68 6f 75 72 20 3d 20 25 30 32 64 00     Set hour = %02d.

00000097 <nifada_xioniou_bits>:
      97:	00 c0 01 00 00 40 02 00 00 40 02 00 00 78 1e 00     .....@...@...x..
      a7:	00 64 12 00 00 44 12 00 60 08 18 02 f0 18 88 05     .d...D..`.......
      b7:	97 10 84 74 19 21 c6 8c 21 61 42 86 03 42 42 60     ...t.!..!aB..BB`
      c7:	0c 42 22 38 06 4c 3a 60 02 70 0e 40 f2 61 c2 6f     .B"8.L:`.p.@.a.o
      d7:	1c 06 70 38 00 18 18 00 00 18 18 00 04 06 30 10     ..p8..........0.
      e7:	fe 41 c2 7f 02 70 0e 40 02 4c 1a 60 0c 46 22 38     .A...p.@.L.`.F"8
      f7:	07 42 62 60 21 41 42 c6 39 21 c6 8c 9f 11 84 74     .Bb`!AB.9!.....t
     107:	b0 18 88 05 60 08 18 03 00 44 12 00 00 64 12 00     ....`....D...d..
     117:	00 78 1e 00 00 40 02 00 00 40 02 00 00 c0 01 00     .x...@...@......

00000127 <flame_bits>:
     127:	00 00 00 00 00 00 80 00 00 00 00 00 03 00 00 00     ................
     137:	00 07 00 00 00 00 1f 00 00 00 00 3f 00 00 00 00     ...........?....
     147:	7f 00 00 00 80 7f 00 00 00 80 ff 00 00 00 c0 ff     ................
     157:	00 00 00 c0 ff 01 00 00 e0 ff 01 00 00 e0 ff 01     ................
     167:	00 00 f8 ff 01 00 00 f8 ff 09 00 00 fe ff 1d 00     ................
     177:	00 ff ff 3f 00 80 ff ff 3f 00 c0 ff ff 7f 00 e0     ...?....?.......
     187:	ff ff ff 00 f0 ff fd ff 00 f0 ff fd ff 00 f8 bf     ................
     197:	fc ff 01 f8 7f fc ff 01 f8 3f fc ff 01 fc 1f f8     .........?......
     1a7:	ff 03 fc 17 fc ff 03 f8 0f f8 ff 01 f8 07 e8 ff     ................
     1b7:	01 fc 07 f0 ff 01 f8 07 e0 ff 00 f8 07 c0 ff 01     ................
     1c7:	f0 07 80 ff 00 f0 07 80 bf 00 e0 0f 80 5f 00 e0     ............._..
     1d7:	1f 80 3f 00 80 1f c0 1f 00 80 3b c0 0d 00 00 1e     ..?.......;.....
     1e7:	a0 03 00 00 38 c0 01 00 00 00 00 00 00 00 00 00     ....8...........
	...

000001f9 <offTimesPM>:
     1f9:	98 08 98 08 98 08 98 08 98 08 fc 08 fc 08           ..............

00000207 <onTimesPM>:
     207:	14 05 5e 06 5e 06 5e 06 5e 06 5e 06 78 05           ..^.^.^.^.^.x.

00000215 <offTimesAM>:
     215:	b0 04 85 02 85 02 85 02 85 02 85 02 b0 04           ..............

00000223 <onTimesAM>:
     223:	4d 03 26 02 26 02 26 02 26 02 26 02 4d 03           M.&.&.&.&.&.M.

00000231 <__c.4106>:
     231:	25 64 b0 43 00                                      %d.C.

00000236 <__c.4103>:
     236:	25 30 32 64 2f 25 30 32 64 2f 25 34 64 00           %02d/%02d/%4d.

00000244 <__c.4101>:
     244:	25 64 3a 25 30 32 64 00                             %d:%02d.

0000024c <__c.4086>:
     24c:	53 6f 6c 6c 2f 54 65 3d 25 64 00                    Soll/Te=%d.

00000257 <__c.4084>:
     257:	54 65 6d 2f 72 65 3d 25 64 00                       Tem/re=%d.

00000261 <__c.4081>:
     261:	44 61 79 3d 20 25 64 00                             Day= %d.

00000269 <__c.4079>:
     269:	52 65 6c 61 79 3d 20 25 64 00                       Relay= %d.

00000273 <__c.4077>:
     273:	50 49 44 5f 43 3d 20 25 64 00                       PID_C= %d.

0000027d <__c.4075>:
     27d:	50 49 44 5f 48 3d 20 25 64 00                       PID_H= %d.

00000287 <__c.4073>:
     287:	54 6d 45 6e 62 3d 20 25 64 00                       TmEnb= %d.

00000291 <__c.4071>:
     291:	41 75 74 3d 20 25 64 00                             Aut= %d.

00000299 <__c.4069>:
     299:	4d 61 6e 3d 20 25 64 00                             Man= %d.

000002a1 <__c.4067>:
     2a1:	53 74 4f 6e 4f 66 66 3d 20 25 64 00                 StOnOff= %d.

000002ad <u8g_dev_ssd13xx_sleep_off>:
     2ad:	ff e0 ff d1 af ff 32 ff d0 ff fe                    ......2....

000002b8 <u8g_dev_ssd13xx_sleep_on>:
     2b8:	ff e0 ff d1 ae ff d0 ff fe                          .........

000002c1 <u8g_dev_ssd1306_128x64_data_start>:
     2c1:	ff e0 ff d1 10 00 ff fe                             ........

000002c9 <u8g_dev_ssd1306_128x64_adafruit2_init_seq>:
     2c9:	ff d0 ff e0 ff c1 ff d1 ae d5 80 a8 3f d3 00 40     ............?..@
     2d9:	8d 14 20 00 a1 c8 da 12 81 cf d9 f1 db 40 2e a4     .. ..........@..
     2e9:	a6 af ff d0 ff fe                                   ......

000002ef <u8g_font_fub17>:
     2ef:	00 22 1f fe fa 11 04 08 08 d1 20 ff fb 19 fa 11     ."........ .....
     2ff:	fb 00 00 00 07 00 00 03 11 11 09 03 00 e0 e0 e0     ................
     30f:	e0 e0 e0 e0 e0 e0 e0 e0 e0 00 00 e0 e0 e0 08 07     ................
     31f:	07 0c 02 0a e7 e7 e7 e7 e7 e7 e7 0e 11 22 10 01     ............."..
     32f:	00 03 18 07 18 06 38 06 30 3f fc 3f fc 0c 60 0c     ......8.0?.?..`.
     33f:	60 1c 60 18 e0 ff f8 ff f0 39 c0 31 80 31 80 71     `.`......9.1.1.q
     34f:	80 63 80 0c 15 2a 0e 01 fd 02 00 0f 80 3f c0 7f     .c...*.......?..
     35f:	e0 f2 e0 e2 e0 e2 00 fa 00 7e 00 3f c0 0f e0 03     .........~.?....
     36f:	f0 02 f0 e2 70 e2 70 f2 f0 7f e0 3f c0 0f 00 02     ....p.p....?....
     37f:	00 02 00 15 11 33 17 01 00 3e 03 00 7f 07 00 63     .....3...>.....c
     38f:	06 00 c1 8e 00 c1 8c 00 c1 98 00 c1 b8 00 63 30     ..............c0
     39f:	80 7f 77 e0 3e 66 30 00 ec 18 00 cc 18 01 cc 18     ..w.>f0.........
     3af:	01 8c 18 03 0e 38 07 07 f0 06 03 e0 10 11 22 12     .....8........".
     3bf:	01 00 1f 80 3f c0 79 e0 70 e0 71 e0 39 c0 3f 80     ....?.y.p.q.9.?.
     3cf:	1f 00 3f 1e 77 9c f3 dc e1 fc e0 fc e0 78 78 7c     ..?.w........xx|
     3df:	7f fe 1f cf 03 07 07 09 03 0a e0 e0 e0 e0 e0 e0     ................
     3ef:	60 05 14 14 09 02 fd 38 38 70 70 70 f0 e0 e0 e0     `......88ppp....
     3ff:	e0 e0 e0 e0 e0 f0 70 70 70 30 38 05 14 14 09 02     ......ppp08.....
     40f:	fd e0 60 70 70 70 38 38 38 38 38 38 38 38 38 38     ..`ppp8888888888
     41f:	70 70 70 60 e0 09 09 12 0f 03 08 36 00 36 00 36     ppp`.......6.6.6
     42f:	00 9c 80 ff 80 9c 80 36 00 36 00 36 00 0e 0e 1c     .......6.6.6....
     43f:	18 05 00 02 00 02 00 02 00 02 00 02 00 02 00 ff     ................
     44f:	fc ff fc 02 00 02 00 02 00 02 00 02 00 02 00 05     ................
     45f:	06 06 07 01 fd 38 70 70 60 60 e0 06 03 03 08 01     .....8pp``......
     46f:	04 fc fc fc 03 03 03 07 02 00 e0 e0 e0 08 12 12     ................
     47f:	0a 01 ff 07 06 06 0e 0c 0c 0c 1c 18 18 38 30 30     .............800
     48f:	30 70 60 60 e0 0b 11 22 0d 01 00 1f 00 3f 80 71     0p``...".....?.q
     49f:	c0 70 c0 e0 e0 e0 e0 e0 e0 e0 e0 e0 e0 e0 e0 e0     .p..............
     4af:	e0 e0 e0 e0 e0 70 c0 71 c0 3f 80 1f 00 07 11 11     .....p.q.?......
     4bf:	0d 02 00 0e 3e fe fe ce 0e 0e 0e 0e 0e 0e 0e 0e     ....>...........
     4cf:	0e 0e 0e 0e 0c 11 22 0d 01 00 0f 80 3f e0 78 e0     ......".....?.x.
     4df:	70 70 00 70 00 70 00 f0 01 e0 03 e0 07 c0 0f 80     pp.p.p..........
     4ef:	1e 00 3c 00 f8 00 ff f0 ff f0 ff f0 0b 11 22 0d     ..<...........".
     4ff:	01 00 1f 00 7f c0 f1 e0 e0 e0 00 e0 00 e0 01 c0     ................
     50f:	0f 80 0f 80 01 c0 00 e0 00 e0 e0 e0 f1 e0 ff c0     ................
     51f:	7f 80 1f 00 0c 11 22 0d 01 00 03 c0 07 c0 07 c0     ......".........
     52f:	0f c0 1d c0 1d c0 39 c0 71 c0 71 c0 e1 c0 ff f0     ......9.q.q.....
     53f:	ff f0 ff f0 01 c0 01 c0 01 c0 01 c0 0b 11 22 0d     ..............".
     54f:	01 00 ff c0 ff c0 ff c0 e0 00 e0 00 e0 00 ef 80     ................
     55f:	ff c0 f1 e0 e0 e0 00 e0 00 e0 e0 e0 e1 e0 ff c0     ................
     56f:	7f 80 3f 00 0b 11 22 0d 01 00 0f 00 3f c0 39 e0     ..?...".....?.9.
     57f:	70 e0 60 00 e0 00 ef 80 ff c0 f1 e0 e0 e0 e0 e0     p.`.............
     58f:	e0 e0 e0 e0 60 e0 71 c0 3f 80 1f 00 0b 11 22 0d     ....`.q.?.....".
     59f:	01 00 ff e0 ff e0 ff e0 00 e0 01 e0 01 c0 03 c0     ................
     5af:	03 80 07 80 07 80 07 00 0f 00 0e 00 1e 00 1c 00     ................
     5bf:	3c 00 3c 00 0b 11 22 0d 01 00 1f 00 7f c0 f1 e0     <.<...".........
     5cf:	e0 e0 e0 e0 e0 e0 71 c0 3f 80 3f 80 71 c0 e0 e0     ......q.?.?.q...
     5df:	e0 e0 e0 e0 e0 e0 f1 e0 7f c0 1f 00 0b 11 22 0d     ..............".
     5ef:	01 00 1f 00 3f 80 71 c0 e0 c0 e0 e0 e0 e0 e0 e0     ....?.q.........
     5ff:	f1 e0 7f e0 3e e0 00 e0 00 e0 e0 e0 e1 c0 71 c0     ....>.........q.
     60f:	7f 80 1e 00 03 0c 0c 07 03 00 e0 e0 e0 00 00 00     ................
     61f:	00 00 00 e0 e0 e0 05 0e 0e 08 01 fe 38 38 38 00     ............888.
     62f:	00 00 00 00 38 38 70 70 60 e0 0e 0c 18 18 05 01     ....88pp`.......
     63f:	00 0c 00 3c 01 e0 07 00 3c 00 e0 00 e0 00 3c 00     ...<....<.....<.
     64f:	07 00 01 e0 00 3c 00 0c 0e 06 0c 18 05 04 ff fc     .....<..........
     65f:	ff fc 00 00 00 00 ff fc ff fc 0e 0c 18 18 05 01     ................
     66f:	c0 00 f0 00 1e 00 03 80 00 f0 00 1c 00 1c 00 f0     ................
     67f:	03 80 1e 00 f0 00 c0 00 0a 11 22 0c 01 00 3e 00     .........."...>.
     68f:	7f 80 e3 80 c1 c0 01 c0 01 c0 03 80 07 80 0e 00     ................
     69f:	1c 00 18 00 18 00 18 00 00 00 00 00 18 00 18 00     ................
     6af:	16 16 42 18 01 fb 00 fe 00 03 ff 80 0f ff e0 1f     ..B.............
     6bf:	01 f0 3e 00 f0 78 f7 78 79 ff 38 71 cf 3c f3 87     ..>..x.xy.8q.<..
     6cf:	1c e3 87 1c e3 87 1c e3 87 1c e3 87 1c e3 cf 38     ...............8
     6df:	f1 ff f8 71 fb f0 78 71 e0 3c 00 00 1f 00 00 0f     ...q..xq.<......
     6ef:	ff 00 07 ff 00 00 ff 00 10 11 22 10 00 00 03 c0     ..........".....
     6ff:	03 c0 03 e0 07 e0 07 f0 0f 70 0e 70 0e 78 1e 38     .........p.p.x.8
     70f:	1c 38 1c 3c 3f fc 3f fc 7f fe 78 0e 70 0f f0 07     .8.<?.?...x.p...
     71f:	0c 11 22 0f 02 00 ff c0 ff e0 ff f0 e0 f0 e0 70     .."............p
     72f:	e0 70 e0 e0 ff c0 ff c0 e0 e0 e0 70 e0 70 e0 70     .p.........p.p.p
     73f:	e0 f0 ff f0 ff e0 ff 80 0e 11 22 10 01 00 0f c0     ..........".....
     74f:	1f f0 3f f8 78 78 70 3c f0 3c e0 00 e0 00 e0 00     ..?.xxp<.<......
     75f:	e0 00 e0 00 e0 00 70 3c 70 3c 38 78 1f f0 0f c0     ......p<p<8x....
     76f:	0e 11 22 11 02 00 ff 00 ff e0 ff f0 e0 f8 e0 38     .."............8
     77f:	e0 3c e0 1c e0 1c e0 1c e0 1c e0 1c e0 3c e0 38     .<...........<.8
     78f:	e0 f8 ff f0 ff e0 ff 80 0b 11 22 0f 02 00 ff e0     ..........".....
     79f:	ff e0 ff e0 e0 00 e0 00 e0 00 e0 00 ff e0 ff e0     ................
     7af:	e0 00 e0 00 e0 00 e0 00 e0 00 ff e0 ff e0 ff e0     ................
     7bf:	0b 11 22 0e 02 00 ff e0 ff e0 ff e0 e0 00 e0 00     ..".............
     7cf:	e0 00 e0 00 ff c0 ff c0 ff c0 e0 00 e0 00 e0 00     ................
     7df:	e0 00 e0 00 e0 00 e0 00 0f 11 22 12 01 00 07 e0     ..........".....
     7ef:	1f f8 3f fc 7c 1e 70 0e f0 0e e0 00 e0 00 e0 fe     ..?.|.p.........
     7ff:	e0 fe e0 fe f0 0e 70 0e 7c 0e 3f fe 1f fe 03 f8     ......p.|.?.....
     80f:	0d 11 22 11 02 00 e0 38 e0 38 e0 38 e0 38 e0 38     .."....8.8.8.8.8
     81f:	e0 38 e0 38 ff f8 ff f8 ff f8 e0 38 e0 38 e0 38     .8.8.......8.8.8
     82f:	e0 38 e0 38 e0 38 e0 38 03 11 11 07 02 00 e0 e0     .8.8.8.8........
     83f:	e0 e0 e0 e0 e0 e0 e0 e0 e0 e0 e0 e0 e0 e0 e0 0b     ................
     84f:	11 22 0e 01 00 00 e0 00 e0 00 e0 00 e0 00 e0 00     ."..............
     85f:	e0 00 e0 00 e0 00 e0 00 e0 00 e0 e0 e0 e0 e0 f0     ................
     86f:	e0 ff c0 7f c0 3f 00 0d 11 22 10 02 00 e0 f0 e0     .....?..."......
     87f:	e0 e1 e0 e3 c0 e7 80 ef 00 ef 00 fe 00 fe 00 ef     ................
     88f:	00 e7 80 e7 80 e3 c0 e1 e0 e1 f0 e0 f0 e0 78 0b     ..............x.
     89f:	11 22 0e 02 00 e0 00 e0 00 e0 00 e0 00 e0 00 e0     ."..............
     8af:	00 e0 00 e0 00 e0 00 e0 00 e0 00 e0 00 e0 00 e0     ................
     8bf:	00 ff e0 ff e0 ff e0 12 11 33 16 02 00 fc 07 c0     .........3......
     8cf:	fc 0f c0 fc 0f c0 fc 0f c0 ee 1f c0 ee 1d c0 ee     ................
     8df:	1d c0 e7 3d c0 e7 39 c0 e7 39 c0 e7 b9 c0 e3 f1     ...=..9..9......
     8ef:	c0 e3 f1 c0 e3 f1 c0 e1 f1 c0 e1 e1 c0 e1 e1 c0     ................
     8ff:	0e 11 22 12 02 00 f8 1c f8 1c fc 1c fc 1c ee 1c     ..".............
     90f:	ee 1c e7 1c e7 1c e7 9c e3 9c e3 dc e1 dc e1 dc     ................
     91f:	e0 fc e0 fc e0 7c e0 7c 0f 11 22 11 01 00 07 c0     .....|.|..".....
     92f:	1f f0 3f f8 78 3c 70 1c f0 1e e0 0e e0 0e e0 0e     ..?.x<p.........
     93f:	e0 0e e0 0e f0 0e 70 1c 78 3c 3f f8 1f f0 07 e0     ......p.x<?.....
     94f:	0c 11 22 0f 02 00 ff 80 ff c0 ff e0 e0 f0 e0 70     .."............p
     95f:	e0 70 e0 70 e0 f0 ff e0 ff c0 ff 00 e0 00 e0 00     .p.p............
     96f:	e0 00 e0 00 e0 00 e0 00 11 11 33 13 01 00 07 c0     ..........3.....
     97f:	00 1f f0 00 3f f8 00 78 3c 00 70 1c 00 f0 1e 00     ....?..x<.p.....
     98f:	e0 0e 00 e0 0e 00 e0 0e 00 e0 0e 00 e0 0e 00 f0     ................
     99f:	0e 00 70 1c 00 78 3c 00 3f ff 80 1f ff 80 07 ff     ..p..x<.?.......
     9af:	80 0d 11 22 10 02 00 ff c0 ff f0 ff f8 e0 78 e0     ..."..........x.
     9bf:	38 e0 38 e0 70 ff e0 ff c0 ff f0 e0 f0 e0 70 e0     8.8.p.........p.
     9cf:	78 e0 38 e0 38 e0 38 e0 38 0d 11 22 0f 01 00 0f     x.8.8.8.8.."....
     9df:	c0 3f e0 38 f0 70 70 70 00 78 00 7e 00 3f c0 1f     .?.8.ppp.x.~.?..
     9ef:	f0 03 f0 00 78 e0 38 e0 38 f0 78 7f f0 3f e0 0f     ....x.8.8.x..?..
     9ff:	80 0d 11 22 0f 01 00 ff f8 ff f8 ff f8 07 00 07     ..."............
     a0f:	00 07 00 07 00 07 00 07 00 07 00 07 00 07 00 07     ................
     a1f:	00 07 00 07 00 07 00 07 00 0e 11 22 12 02 00 e0     ..........."....
     a2f:	1c e0 1c e0 1c e0 1c e0 1c e0 1c e0 1c e0 1c e0     ................
     a3f:	1c e0 1c e0 1c e0 1c f0 3c 78 78 7f f8 3f f0 0f     ........<xx..?..
     a4f:	c0 11 11 33 11 00 00 f0 07 80 70 07 00 78 0f 00     ...3......p..x..
     a5f:	78 0e 00 38 1e 00 3c 1e 00 1c 1c 00 1e 3c 00 1e     x..8..<......<..
     a6f:	3c 00 0e 38 00 0f 78 00 0f 70 00 07 70 00 07 f0     <..8..x..p..p...
     a7f:	00 07 e0 00 03 e0 00 03 e0 00 17 11 33 17 00 00     ............3...
     a8f:	f0 38 1e 70 7c 1c 70 7c 1c 78 7c 3c 78 6c 3c 38     .8.p|.p|.x|<xl<8
     a9f:	ee 38 38 ee 38 38 ee 38 3c c6 78 1d c7 70 1d c7     .88.88.8<.x..p..
     aaf:	70 1d c7 70 1d 83 70 0f 83 e0 0f 83 e0 0f 83 e0     p..p..p.........
     abf:	0f 01 e0 0e 11 22 10 01 00 f0 3c 78 38 78 78 3c     ....."....<x8xx<
     acf:	70 1c e0 1f e0 0f c0 07 80 07 80 0f c0 1f c0 1d     p...............
     adf:	e0 38 f0 78 70 70 78 f0 3c e0 3c 0d 11 22 0f 01     .8.xppx.<.<.."..
     aef:	00 e0 38 f0 78 70 70 78 f0 38 e0 3d e0 1d c0 1f     ..8.xppx.8.=....
     aff:	c0 0f 80 0f 80 07 00 07 00 07 00 07 00 07 00 07     ................
     b0f:	00 07 00 0c 11 22 0e 01 00 ff f0 ff f0 ff f0 01     ....."..........
     b1f:	f0 01 e0 03 c0 07 80 07 80 0f 00 1e 00 3c 00 3c     .............<.<
     b2f:	00 78 00 f0 00 ff f0 ff f0 ff f0 05 16 16 09 02     .x..............
     b3f:	fb f8 f8 e0 e0 e0 e0 e0 e0 e0 e0 e0 e0 e0 e0 e0     ................
     b4f:	e0 e0 e0 e0 e0 f8 f8 07 12 12 0a 01 ff c0 e0 60     ...............`
     b5f:	60 70 30 30 38 18 18 18 1c 0c 0c 0e 06 06 06 05     `p008...........
     b6f:	16 16 09 02 fb f8 f8 38 38 38 38 38 38 38 38 38     .......888888888
     b7f:	38 38 38 38 38 38 38 38 38 f8 f8 0b 0e 1c 17 06     888888888.......
     b8f:	00 04 00 0e 00 0a 00 1b 00 11 00 11 00 31 80 20     .............1. 
     b9f:	80 20 80 60 c0 40 40 c0 60 80 20 80 20 0c 02 04     . .`.@@.`. . ...
     baf:	0c 00 fd ff f0 ff f0 04 04 04 06 00 0e e0 60 30     ..............`0
     bbf:	30 0a 0c 18 0d 01 00 1f 00 7f 80 71 c0 01 c0 1f     0..........q....
     bcf:	c0 7f c0 f1 c0 e1 c0 e1 c0 f3 c0 7f c0 3c c0 0c     .............<..
     bdf:	11 22 0e 01 00 e0 00 e0 00 e0 00 e0 00 e0 00 ef     ."..............
     bef:	80 ff c0 f1 e0 f0 f0 e0 70 e0 70 e0 70 e0 70 f0     ........p.p.p.p.
     bff:	f0 f8 e0 ff c0 e7 80 0a 0c 18 0c 01 00 1f 00 7f     ................
     c0f:	80 73 c0 e1 c0 e0 00 e0 00 e0 00 e1 c0 e1 c0 73     .s.............s
     c1f:	c0 7f 80 1f 00 0c 11 22 0e 01 00 00 70 00 70 00     ......."....p.p.
     c2f:	70 00 70 00 70 1f 70 3f f0 78 f0 f0 f0 e0 70 e0     p.p.p.p?.x....p.
     c3f:	70 e0 70 e0 70 f0 f0 71 f0 3f f0 1e 70 0b 0c 18     p.p.p..q.?..p...
     c4f:	0d 01 00 1f 00 3f 80 71 c0 e1 e0 ff e0 ff e0 e0     .....?.q........
     c5f:	00 e0 00 e1 c0 71 c0 7f c0 1f 00 08 11 11 09 01     .....q..........
     c6f:	00 1f 3f 38 38 38 ff ff 38 38 38 38 38 38 38 38     ..?888..88888888
     c7f:	38 38 0c 11 22 0e 01 fb 1f 70 3f f0 78 f0 f0 f0     88.."....p?.x...
     c8f:	e0 70 e0 70 e0 70 e0 70 f0 f0 70 f0 7f f0 1e 70     .p.p.p.p..p....p
     c9f:	00 70 70 70 78 e0 3f e0 1f 80 0b 11 22 0d 01 00     .pppx.?....."...
     caf:	e0 00 e0 00 e0 00 e0 00 e0 00 ef 80 ff c0 f1 e0     ................
     cbf:	f0 e0 e0 e0 e0 e0 e0 e0 e0 e0 e0 e0 e0 e0 e0 e0     ................
     ccf:	e0 e0 03 11 11 05 01 00 e0 e0 e0 00 00 e0 e0 e0     ................
     cdf:	e0 e0 e0 e0 e0 e0 e0 e0 e0 04 16 16 07 02 fb 70     ...............p
     cef:	70 70 00 00 70 70 70 70 70 70 70 70 70 70 70 70     pp..pppppppppppp
     cff:	70 70 f0 f0 e0 0b 11 22 0c 01 00 e0 00 e0 00 e0     pp....."........
     d0f:	00 e0 00 e0 00 e3 c0 e3 80 e7 00 ef 00 fe 00 fe     ................
     d1f:	00 ee 00 ef 00 e7 80 e7 80 e3 c0 e1 e0 03 11 11     ................
     d2f:	06 01 00 e0 e0 e0 e0 e0 e0 e0 e0 e0 e0 e0 e0 e0     ................
     d3f:	e0 e0 e0 e0 13 0c 24 15 01 00 e7 8f 80 ef df c0     ......$.........
     d4f:	f9 f1 e0 f0 e0 e0 e0 e0 e0 e0 e0 e0 e0 e0 e0 e0     ................
     d5f:	e0 e0 e0 e0 e0 e0 e0 e0 e0 e0 e0 e0 e0 e0 0b 0c     ................
     d6f:	18 0d 01 00 ef 80 ff c0 f1 e0 e0 e0 e0 e0 e0 e0     ................
     d7f:	e0 e0 e0 e0 e0 e0 e0 e0 e0 e0 e0 e0 0c 0c 18 0e     ................
     d8f:	01 00 1f 80 3f c0 70 e0 f0 e0 e0 70 e0 70 e0 70     ....?.p....p.p.p
     d9f:	e0 70 f0 f0 70 e0 3f c0 1f 80 0c 11 22 0e 01 fb     .p..p.?....."...
     daf:	e7 80 ff c0 f8 e0 f0 f0 e0 70 e0 70 e0 70 e0 70     .........p.p.p.p
     dbf:	f0 f0 f1 e0 ff c0 ef 80 e0 00 e0 00 e0 00 e0 00     ................
     dcf:	e0 00 0c 11 22 0e 01 fb 1e 70 3f f0 71 f0 f0 f0     ...."....p?.q...
     ddf:	e0 70 e0 70 e0 70 e0 70 f0 f0 78 f0 3f f0 1f 70     .p.p.p.p..x.?..p
     def:	00 70 00 70 00 70 00 70 00 70 07 0c 0c 09 01 00     .p.p.p.p.p......
     dff:	ee ee fe f0 f0 e0 e0 e0 e0 e0 e0 e0 0a 0c 18 0c     ................
     e0f:	01 00 3f 00 7f 80 f1 c0 e1 c0 f8 00 7f 00 1f 80     ..?.............
     e1f:	03 c0 e1 c0 e3 c0 7f 80 3f 00 08 0f 0f 0a 01 00     ........?.......
     e2f:	18 38 38 ff ff 38 38 38 38 38 38 38 3c 3f 0f 0b     .88..8888888<?..
     e3f:	0c 18 0d 01 00 e0 e0 e0 e0 e0 e0 e0 e0 e0 e0 e0     ................
     e4f:	e0 e0 e0 e0 e0 e0 e0 f1 e0 7f e0 3e e0 0c 0c 18     ...........>....
     e5f:	0d 00 00 f0 70 70 f0 70 e0 78 e0 38 e0 39 c0 1d     ....pp.p.x.8.9..
     e6f:	c0 1d c0 1f 80 0f 80 0f 80 0f 00 13 0c 24 14 00     .............$..
     e7f:	00 f0 f0 e0 70 f0 e0 71 f0 e0 71 f9 c0 39 f9 c0     ....p..q..q..9..
     e8f:	3b b9 c0 3b 9f c0 3f 9f 80 1f 1f 80 1f 0f 80 1f     ;..;..?.........
     e9f:	0f 00 0f 0f 00 0b 0c 18 0d 01 00 f1 e0 71 c0 7b     .............q.{
     eaf:	80 3f 80 1f 00 1e 00 1f 00 3f 80 7b 80 73 c0 f1     .?.......?.{.s..
     ebf:	c0 e1 e0 0c 11 22 0c 00 fb f0 70 70 f0 78 e0 38     ....."....pp.x.8
     ecf:	e0 39 e0 3d c0 1d c0 1d c0 1f 80 0f 80 0f 80 07     .9.=............
     edf:	00 07 00 0f 00 0e 00 0e 00 1e 00 0a 0c 18 0c 01     ................
     eef:	00 ff 80 ff 80 07 80 07 00 0e 00 1e 00 3c 00 38     .............<.8
     eff:	00 70 00 e0 00 ff c0 ff c0 09 17 2e 0c 02 fa 07     .p..............
     f0f:	80 0f 80 1c 00 1c 00 1c 00 1c 00 1c 00 1c 00 1c     ................
     f1f:	00 3c 00 f8 00 e0 00 f8 00 3c 00 1c 00 1c 00 1c     .<.......<......
     f2f:	00 1c 00 1c 00 1c 00 1c 00 0f 80 07 80 02 19 19     ................
     f3f:	08 03 fa c0 c0 c0 c0 c0 c0 c0 c0 c0 c0 c0 c0 c0     ................
     f4f:	c0 c0 c0 c0 c0 c0 c0 c0 c0 c0 c0 c0 08 17 17 0c     ................
     f5f:	02 fa e0 f0 38 38 38 38 38 38 38 1c 1f 07 1f 1c     ....8888888.....
     f6f:	38 38 38 38 38 38 38 f8 e0 0c 03 06 0c 00 05 3c     8888888........<
     f7f:	30 7f f0 e3 c0 ff ff ff ff ff ff ff ff ff ff ff     0...............
     f8f:	ff ff ff ff ff ff ff ff ff ff ff ff ff ff ff ff     ................
     f9f:	ff ff ff ff ff ff 00 00 00 07 00 00 03 11 11 09     ................
     faf:	03 fb e0 e0 e0 00 00 e0 e0 e0 e0 e0 e0 e0 e0 e0     ................
     fbf:	e0 e0 e0 0a 12 24 0d 01 fd 01 00 01 00 03 00 1f     .....$..........
     fcf:	00 7f 80 73 c0 e7 c0 e4 00 e4 00 ec 00 e9 c0 e9     ...s............
     fdf:	c0 7b c0 7f 80 1f 00 10 00 30 00 20 00 0b 11 22     .{.......0. ..."
     fef:	0d 01 00 0f 80 1f e0 38 e0 38 e0 38 00 38 00 ff     .......8.8.8.8..
     fff:	00 ff 00 38 00 38 00 38 00 38 00 38 00 38 00 38     ...8.8.8.8.8.8.8
    100f:	00 ff e0 ff e0 0b 0c 18 0d 01 04 80 20 5f 40 71     ............ _@q
    101f:	80 60 80 40 40 40 40 40 40 40 40 60 c0 31 80 5f     .`.@@@@@@@@`.1._
    102f:	40 80 20 0d 11 22 0f 01 00 e0 78 f0 78 70 70 78     @. .."....x.xppx
    103f:	f0 38 e0 fd f8 fd f8 1f c0 0f 80 ff f8 ff f8 07     .8..............
    104f:	00 07 00 07 00 07 00 07 00 07 00 01 16 16 08 04     ................
    105f:	fb 80 80 80 80 80 80 80 80 80 00 00 00 00 80 80     ................
    106f:	80 80 80 80 80 80 80 09 15 2a 0b 01 fc 3f 00 7f     .........*...?..
    107f:	00 f1 00 e0 00 e0 00 78 00 3e 00 3f 00 77 80 e3     .......x.>.?.w..
    108f:	80 e3 80 e7 80 ff 00 7e 00 1f 00 07 80 03 80 03     .......~........
    109f:	80 87 80 ff 00 7c 00 08 03 03 08 00 0f e7 e7 e7     .....|..........
    10af:	11 11 33 13 01 00 03 e0 00 0f f8 00 3c 1e 00 33     ..3.........<..3
    10bf:	e6 00 67 f3 00 67 3b 00 ce 39 80 ce 01 80 ce 01     ..g..g;..9......
    10cf:	80 ce 01 80 ce 39 80 4e 39 00 67 f3 00 33 e6 00     .....9.N9.g..3..
    10df:	38 0e 00 0f f8 00 03 e0 00 08 0b 0b 0a 01 06 3c     8..............<
    10ef:	66 06 7e e6 c6 c6 7e 00 00 ff 0b 09 12 0e 01 01     f.~...~.........
    10ff:	3c e0 38 e0 79 e0 71 c0 f3 c0 71 c0 79 e0 38 e0     <.8.y.q...q.y.8.
    110f:	3c e0 0c 05 0a 0e 01 05 ff f0 00 10 00 10 00 10     <...............
    111f:	00 10 ff 11 11 33 13 01 00 03 e0 00 0f f8 00 3c     .....3.........<
    112f:	1e 00 37 f6 00 67 fb 00 66 1b 00 c6 19 80 c7 f1     ..7..g..f.......
    113f:	80 c7 f1 80 c6 39 80 c6 19 80 46 19 00 66 1b 00     .....9....F..f..
    114f:	30 06 00 38 0e 00 0f f8 00 03 e0 00 07 02 02 07     0..8............
    115f:	00 0f fe fe 05 05 05 07 01 0c 70 88 88 88 70 0e     ..........p...p.
    116f:	0e 1c 18 05 00 02 00 02 00 02 00 02 00 ff fc ff     ................
    117f:	fc 02 00 02 00 02 00 02 00 00 00 00 00 ff fc ff     ................
    118f:	fc 07 09 09 09 01 08 7c e6 06 0e 1c 38 e0 fe fe     .......|....8...
    119f:	07 09 09 09 01 08 7c ce 06 0e 38 0e 06 ce 7c 05     ......|...8...|.
    11af:	04 04 05 01 0e 38 70 60 c0 ff 0b 14 28 0e 02 fd     .....8p`....(...
    11bf:	3f e0 7d 80 fd 80 fd 80 fd 80 fd 80 fd 80 7d 80     ?.}...........}.
    11cf:	0d 80 0d 80 0d 80 0d 80 0d 80 0d 80 0d 80 0d 80     ................
    11df:	0d 80 0d 80 0d 80 0d 80 03 03 03 07 02 06 e0 e0     ................
    11ef:	e0 06 05 05 06 01 fb 20 38 0c 0c f8 04 09 09 06     ....... 8.......
    11ff:	01 08 30 f0 b0 30 30 30 30 30 30 08 0b 0b 0a 01     ..0..000000.....
    120f:	06 3c 66 c3 c3 c3 c3 e7 7e 3c 00 ff 0c 09 12 0e     .<f.....~<......
    121f:	01 01 e3 80 71 c0 79 e0 38 e0 3c f0 38 e0 79 e0     ....q.y.8.<.8.y.
    122f:	71 c0 e3 80 10 11 22 12 01 00 30 18 f0 18 b0 30     q....."...0....0
    123f:	30 70 30 60 30 e0 30 c0 31 80 31 8e 03 0e 03 1e     0p0`0.0.1.1.....
    124f:	06 36 0e 36 0c 66 18 7f 18 06 30 06 10 11 22 12     .6.6.f....0...".
    125f:	01 00 30 18 f0 30 b0 30 30 60 30 e0 30 c0 31 c0     ..0..0.00`0.0.1.
    126f:	31 80 33 3e 03 77 06 03 06 07 0c 0e 1c 1c 18 70     1.3>.w.........p
    127f:	30 7f 30 7f 11 11 33 13 01 00 7c 06 00 c6 0c 00     0.0...3...|.....
    128f:	06 0c 00 38 18 00 0e 38 00 06 30 00 ce 70 00 7c     ...8...8..0..p.|
    129f:	60 00 00 c7 00 01 c7 00 01 8f 00 03 9b 00 03 1b     `...............
    12af:	00 07 33 00 06 3f 80 0c 03 00 1c 03 00 0a 11 22     ..3..?........."
    12bf:	0c 01 fb 0e 00 0e 00 00 00 00 00 0e 00 0e 00 0e     ................
    12cf:	00 1c 00 38 00 70 00 f0 00 e0 00 e0 80 e0 c0 73     ...8.p.........s
    12df:	c0 7f 80 1f 00 10 18 30 10 00 00 0e 00 07 00 03     .......0........
    12ef:	00 03 80 01 80 00 00 00 00 03 c0 03 c0 03 e0 07     ................
    12ff:	e0 07 f0 0f 70 0e 70 0e 78 1e 38 1c 38 1c 3c 3f     ....p.p.x.8.8.<?
    130f:	fc 3f fc 7f fe 78 0e 70 0f f0 07 10 18 30 10 00     .?...x.p.....0..
    131f:	00 00 70 00 60 00 e0 00 c0 01 80 00 00 00 00 03     ..p.`...........
    132f:	c0 03 c0 03 e0 07 e0 07 f0 0f 70 0e 70 0e 78 1e     ..........p.p.x.
    133f:	38 1c 38 1c 3c 3f fc 3f fc 7f fe 78 0e 70 0f f0     8.8.<?.?...x.p..
    134f:	07 10 18 30 10 00 00 01 c0 03 c0 03 e0 06 60 04     ...0..........`.
    135f:	30 00 00 00 00 03 c0 03 c0 03 e0 07 e0 07 f0 0f     0...............
    136f:	70 0e 70 0e 78 1e 38 1c 38 1c 3c 3f fc 3f fc 7f     p.p.x.8.8.<?.?..
    137f:	fe 78 0e 70 0f f0 07 10 17 2e 10 00 00 00 10 07     .x.p............
    138f:	f0 07 e0 00 00 00 00 00 00 03 c0 03 c0 03 e0 07     ................
    139f:	e0 07 f0 0f 70 0e 70 0e 78 1e 38 1c 38 1c 3c 3f     ....p.p.x.8.8.<?
    13af:	fc 3f fc 7f fe 78 0e 70 0f f0 07 10 17 2e 11 00     .?...x.p........
    13bf:	00 0e 70 0e 70 0e 70 00 00 00 00 00 00 03 c0 03     ..p.p.p.........
    13cf:	c0 07 e0 07 e0 07 e0 0f 70 0e 70 1e 78 1e 38 1c     ........p.p.x.8.
    13df:	38 3c 3c 3f fc 7f fe 7f fe 70 0e f0 0f e0 07 0f     8<<?.....p......
    13ef:	19 32 10 01 00 03 80 06 c0 04 40 04 40 04 c0 03     .2........@.@...
    13ff:	80 00 00 00 00 03 80 07 c0 07 c0 0f c0 0e e0 0e     ................
    140f:	e0 1e e0 1c 70 1c 70 3c 70 38 78 3f f8 7f fc 7f     ....p.p<p8x?....
    141f:	fc 70 1c f0 1e e0 0e 15 11 33 17 01 00 00 ff f8     .p.......3......
    142f:	00 ff f8 01 f8 00 01 f8 00 03 b8 00 03 b8 00 07     ................
    143f:	38 00 07 3f f8 0e 3f f8 0e 38 00 1e 38 00 1f f8     8..?..?..8..8...
    144f:	00 3f f8 00 78 38 00 70 38 00 f0 3f f8 e0 3f f8     .?..x8.p8..?..?.
    145f:	0e 16 2c 10 01 fb 0f c0 1f f0 3f f8 78 38 70 3c     ..,.......?.x8p<
    146f:	f0 1c e0 00 e0 00 e0 00 e0 00 e0 00 e0 00 70 1c     ..............p.
    147f:	70 3c 38 78 1f f0 0f c0 03 00 03 c0 00 60 00 60     p<8x.........`.`
    148f:	07 c0 0b 18 30 0f 02 00 38 00 18 00 1c 00 0c 00     ....0...8.......
    149f:	06 00 00 00 00 00 ff e0 ff e0 ff e0 e0 00 e0 00     ................
    14af:	e0 00 e0 00 ff e0 ff e0 e0 00 e0 00 e0 00 e0 00     ................
    14bf:	e0 00 ff e0 ff e0 ff e0 0b 18 30 0f 02 00 03 80     ..........0.....
    14cf:	03 00 07 00 06 00 0c 00 00 00 00 00 ff e0 ff e0     ................
    14df:	ff e0 e0 00 e0 00 e0 00 e0 00 ff e0 ff e0 e0 00     ................
    14ef:	e0 00 e0 00 e0 00 e0 00 ff e0 ff e0 ff e0 0b 18     ................
    14ff:	30 0f 02 00 0e 00 1f 00 1b 00 3b 80 31 80 00 00     0.........;.1...
    150f:	00 00 ff e0 ff e0 ff e0 e0 00 e0 00 e0 00 e0 00     ................
    151f:	ff e0 ff e0 e0 00 e0 00 e0 00 e0 00 e0 00 ff e0     ................
    152f:	ff e0 ff e0 0b 17 2e 0f 02 00 3b 80 3b 80 3b 80     ..........;.;.;.
    153f:	00 00 00 00 00 00 ff e0 ff e0 ff e0 e0 00 e0 00     ................
    154f:	e0 00 e0 00 ff e0 ff e0 e0 00 e0 00 e0 00 e0 00     ................
    155f:	e0 00 ff e0 ff e0 ff e0 05 18 18 07 00 00 e0 e0     ................
    156f:	60 30 10 00 00 38 38 38 38 38 38 38 38 38 38 38     `0...88888888888
    157f:	38 38 38 38 38 38 05 18 18 05 01 00 38 30 70 60     888888......80p`
    158f:	c0 00 00 e0 e0 e0 e0 e0 e0 e0 e0 e0 e0 e0 e0 e0     ................
    159f:	e0 e0 e0 e0 07 18 18 07 00 00 38 38 6c 6c c6 00     ..........88ll..
    15af:	00 38 38 38 38 38 38 38 38 38 38 38 38 38 38 38     .888888888888888
    15bf:	38 38 08 17 17 08 00 00 e7 e7 e7 00 00 00 38 38     88............88
    15cf:	38 38 38 38 38 38 38 38 38 38 38 38 38 38 38 0f     888888888888888.
    15df:	11 22 10 00 00 3f c0 3f f0 3f f8 38 3c 38 1c 38     ."...?.?.?.8<8.8
    15ef:	1e 38 0e 38 0e ff 0e ff 0e 38 0e 38 1e 38 1c 38     .8.8.....8.8.8.8
    15ff:	3c 3f f8 3f f0 3f c0 0e 17 2e 12 02 00 00 20 0f     <?.?.?........ .
    160f:	c0 0f c0 00 00 00 00 00 00 f8 1c f8 1c fc 1c fc     ................
    161f:	1c ee 1c ee 1c e7 1c e7 1c e7 9c e3 9c e3 dc e1     ................
    162f:	dc e1 dc e0 fc e0 fc e0 7c e0 7c 0f 18 30 11 01     ........|.|..0..
    163f:	00 1c 00 0e 00 06 00 03 00 01 00 00 00 00 00 07     ................
    164f:	c0 1f f0 3f f8 78 3c 70 1c f0 1e e0 0e e0 0e e0     ...?.x<p........
    165f:	0e e0 0e e0 0e f0 0e 70 1c 78 3c 3f f8 1f f0 07     .......p.x<?....
    166f:	e0 0f 18 30 11 01 00 00 70 00 e0 00 c0 01 80 01     ...0....p.......
    167f:	00 00 00 00 00 07 c0 1f f0 3f f8 78 3c 70 1c f0     .........?.x<p..
    168f:	1e e0 0e e0 0e e0 0e e0 0e e0 0e f0 0e 70 1c 78     .............p.x
    169f:	3c 3f f8 1f f0 07 e0 0f 18 30 11 01 00 03 80 07     <?.......0......
    16af:	c0 06 c0 0c 60 08 20 00 00 00 00 07 c0 1f f0 3f     ....`. ........?
    16bf:	f8 78 3c 70 1c f0 1e e0 0e e0 0e e0 0e e0 0e e0     .x<p............
    16cf:	0e f0 0e 70 1c 78 3c 3f f8 1f f0 07 e0 0f 17 2e     ...p.x<?........
    16df:	11 01 00 07 20 0f e0 08 c0 00 00 00 00 00 00 07     .... ...........
    16ef:	c0 1f f0 3f f8 78 3c 70 1c f0 1e e0 0e e0 0e e0     ...?.x<p........
    16ff:	0e e0 0e e0 0e e0 0e 70 1c 78 3c 3f f8 1f f0 07     .......p.x<?....
    170f:	e0 0f 17 2e 11 01 00 0e 70 0e 70 0e 70 00 00 00     ........p.p.p...
    171f:	00 00 00 07 c0 1f f0 3f f8 78 3c 70 1c f0 1e e0     .......?.x<p....
    172f:	0e e0 0e e0 0e e0 0e e0 0e f0 0e 70 1c 78 3c 3f     ...........p.x<?
    173f:	f8 1f f0 07 e0 0d 0c 18 17 05 01 c0 18 60 30 30     .............`00
    174f:	60 18 c0 0d 80 07 00 07 00 0d 80 18 c0 30 60 60     `............0``
    175f:	30 c0 18 11 13 39 11 00 ff 00 01 00 03 f1 80 0f     0....9..........
    176f:	fb 00 1f fe 00 3c 1e 00 38 1e 00 78 3f 00 70 77     .....<..8..x?.pw
    177f:	00 70 e7 00 71 c7 00 73 87 00 77 07 00 7e 07 00     .p..q..s..w..~..
    178f:	3c 0e 00 3c 1e 00 3f fc 00 6f f8 00 e3 e0 00 40     <..<..?..o.....@
    179f:	00 00 0e 18 30 12 02 00 1c 00 0c 00 0e 00 06 00     ....0...........
    17af:	03 00 00 00 00 00 e0 1c e0 1c e0 1c e0 1c e0 1c     ................
    17bf:	e0 1c e0 1c e0 1c e0 1c e0 1c e0 1c e0 1c f0 3c     ...............<
    17cf:	70 38 7f f8 3f f0 0f c0 0e 18 30 12 02 00 00 e0     p8..?.....0.....
    17df:	00 c0 01 c0 01 80 03 00 00 00 00 00 e0 1c e0 1c     ................
    17ef:	e0 1c e0 1c e0 1c e0 1c e0 1c e0 1c e0 1c e0 1c     ................
    17ff:	e0 1c e0 1c f0 3c 70 38 7f f8 3f f0 0f c0 0e 18     .....<p8..?.....
    180f:	30 12 02 00 07 80 07 80 0f c0 0c c0 18 60 00 00     0............`..
    181f:	00 00 e0 1c e0 1c e0 1c e0 1c e0 1c e0 1c e0 1c     ................
    182f:	e0 1c e0 1c e0 1c e0 1c e0 1c f0 3c 70 38 7f f8     ...........<p8..
    183f:	3f f0 0f c0 0e 17 2e 10 01 00 1c e0 1c e0 1c e0     ?...............
    184f:	00 00 00 00 00 00 e0 1c e0 1c e0 1c e0 1c e0 1c     ................
    185f:	e0 1c e0 1c e0 1c e0 1c e0 1c e0 1c e0 1c f0 3c     ...............<
    186f:	78 78 7f f8 3f f0 0f c0 0d 17 2e 0f 01 00 01 c0     xx..?...........
    187f:	01 80 03 00 02 00 00 00 00 00 e0 38 f0 78 70 70     ...........8.xpp
    188f:	78 f0 38 e0 3d e0 1d c0 1f c0 0f 80 0f 80 07 00     x.8.=...........
    189f:	07 00 07 00 07 00 07 00 07 00 07 00 0c 11 22 0f     ..............".
    18af:	01 00 e0 00 e0 00 e0 00 ff 80 ff e0 ff e0 e0 f0     ................
    18bf:	e0 70 e0 70 e0 f0 ff e0 ff e0 ff 80 e0 00 e0 00     .p.p............
    18cf:	e0 00 e0 00 0c 11 22 0e 01 00 3f 00 7f 80 f1 c0     ......"...?.....
    18df:	e1 c0 e1 c0 e3 80 e7 00 ee 00 ee 00 ef 80 e7 c0     ................
    18ef:	e1 e0 e0 70 ee 70 ee 70 ef e0 e7 c0 0a 13 26 0d     ...p.p.p......&.
    18ff:	01 00 70 00 38 00 18 00 0c 00 04 00 00 00 00 00     ..p.8...........
    190f:	1f 00 7f 80 71 c0 01 c0 1f c0 7f c0 f1 c0 e1 c0     ....q...........
    191f:	e1 c0 f3 c0 7f c0 3c c0 0a 13 26 0d 01 00 03 80     ......<...&.....
    192f:	03 00 06 00 06 00 0c 00 00 00 00 00 1f 00 7f 80     ................
    193f:	71 c0 01 c0 1f c0 7f c0 f1 c0 e1 c0 e1 c0 f3 c0     q...............
    194f:	7f c0 3c c0 0a 13 26 0d 01 00 0e 00 1e 00 1b 00     ..<...&.........
    195f:	33 00 21 80 00 00 00 00 1f 00 7f 80 71 c0 01 c0     3.!.........q...
    196f:	1f c0 7f c0 f1 c0 e1 c0 e1 c0 f3 c0 7f c0 3c c0     ..............<.
    197f:	0a 11 22 0d 01 00 1f 80 3f 00 00 00 00 00 00 00     ..".....?.......
    198f:	1f 00 7f 80 71 c0 01 c0 1f c0 7f c0 f1 c0 e1 c0     ....q...........
    199f:	e1 c0 f3 c0 7f c0 3c c0 0a 12 24 0d 01 00 73 80     ......<...$...s.
    19af:	73 80 73 80 00 00 00 00 00 00 3f 00 7f 80 f1 c0     s.s.......?.....
    19bf:	01 c0 1f c0 7f c0 f1 c0 e1 c0 e1 c0 f3 c0 7f c0     ................
    19cf:	3c c0 0a 14 28 0d 01 00 0e 00 1b 00 11 00 13 00     <...(...........
    19df:	1f 00 0e 00 00 00 00 00 1f 00 7f 80 71 c0 01 c0     ............q...
    19ef:	1f c0 7f c0 f1 c0 e1 c0 e1 c0 f3 c0 7f c0 3c c0     ..............<.
    19ff:	12 0c 24 14 01 00 1f 1f 00 7f bf 80 71 f3 80 00     ..$.........q...
    1a0f:	e1 c0 1f ff c0 7f ff c0 f0 e0 00 e0 e0 00 e0 e1     ................
    1a1f:	c0 f1 f3 c0 7f 3f 80 3e 1f 00 0a 11 22 0c 01 fb     .....?.>...."...
    1a2f:	1f 00 7f 80 73 c0 e1 c0 e0 00 e0 00 e0 00 e0 00     ....s...........
    1a3f:	e1 c0 73 c0 7f 80 3f 00 08 00 0e 00 03 00 03 00     ..s...?.........
    1a4f:	1e 00 0b 13 26 0d 01 00 70 00 38 00 18 00 0c 00     ....&...p.8.....
    1a5f:	04 00 00 00 00 00 1f 00 3f 80 71 c0 e1 e0 ff e0     ........?.q.....
    1a6f:	ff e0 e0 00 e0 00 e1 c0 71 c0 7f c0 1f 00 0b 13     ........q.......
    1a7f:	26 0d 01 00 03 80 03 00 07 00 06 00 0c 00 00 00     &...............
    1a8f:	00 00 1f 00 3f 80 71 c0 e1 e0 ff e0 ff e0 e0 00     ....?.q.........
    1a9f:	e0 00 e1 c0 71 c0 7f c0 1f 00 0b 13 26 0d 01 00     ....q.......&...
    1aaf:	0e 00 1f 00 1b 00 31 80 21 80 00 00 00 00 1f 00     ......1.!.......
    1abf:	3f 80 71 c0 e1 e0 ff e0 ff e0 e0 00 e0 00 e1 c0     ?.q.............
    1acf:	71 c0 7f c0 1f 00 0b 12 24 0d 01 00 73 80 73 80     q.......$...s.s.
    1adf:	73 80 00 00 00 00 00 00 1f 00 3f 80 73 c0 e1 c0     s.........?.s...
    1aef:	ff e0 ff e0 e0 00 e0 00 e1 c0 73 c0 7f 80 1f 00     ..........s.....
    1aff:	05 12 12 06 ff 00 e0 70 30 18 00 00 38 38 38 38     .......p0...8888
    1b0f:	38 38 38 38 38 38 38 38 04 12 12 05 01 00 70 60     88888888......p`
    1b1f:	e0 c0 00 00 e0 e0 e0 e0 e0 e0 e0 e0 e0 e0 e0 e0     ................
    1b2f:	07 12 12 06 ff 00 38 7c 6c c6 00 00 38 38 38 38     ......8|l...8888
    1b3f:	38 38 38 38 38 38 38 38 08 12 12 07 ff 00 e7 e7     88888888........
    1b4f:	e7 00 00 00 38 38 38 38 38 38 38 38 38 38 38 38     ....888888888888
    1b5f:	0c 11 22 0e 01 00 1c 60 0f c0 0f 80 3b 80 21 c0     .."....`....;.!.
    1b6f:	1f e0 3f e0 70 e0 f0 f0 e0 70 e0 70 e0 70 e0 70     ..?.p....p.p.p.p
    1b7f:	f0 f0 70 e0 3f c0 1f 80 0b 11 22 0d 01 00 1f 80     ..p.?.....".....
    1b8f:	3f 00 00 00 00 00 00 00 ef 80 ff c0 f1 e0 e0 e0     ?...............
    1b9f:	e0 e0 e0 e0 e0 e0 e0 e0 e0 e0 e0 e0 e0 e0 e0 e0     ................
    1baf:	0c 13 26 0e 01 00 38 00 1c 00 0c 00 06 00 06 00     ..&...8.........
    1bbf:	00 00 00 00 1f 80 3f c0 70 e0 f0 e0 e0 70 e0 70     ......?.p....p.p
    1bcf:	e0 70 e0 70 f0 f0 70 e0 3f c0 1f 80 0c 13 26 0e     .p.p..p.?.....&.
    1bdf:	01 00 01 c0 03 80 03 00 06 00 04 00 00 00 00 00     ................
    1bef:	1f 80 3f c0 70 e0 f0 e0 e0 70 e0 70 e0 70 e0 70     ..?.p....p.p.p.p
    1bff:	f0 f0 70 e0 3f c0 1f 80 0c 13 26 0e 01 00 0f 00     ..p.?.....&.....
    1c0f:	0f 00 1f 80 19 80 30 c0 00 00 00 00 1f 80 3f c0     ......0.......?.
    1c1f:	70 e0 f0 e0 e0 70 e0 70 e0 70 e0 70 f0 f0 70 e0     p....p.p.p.p..p.
    1c2f:	3f c0 1f 80 0c 11 22 0e 01 00 1f c0 3f 80 00 00     ?.....".....?...
    1c3f:	00 00 00 00 1f 80 3f c0 70 e0 f0 e0 e0 70 e0 70     ......?.p....p.p
    1c4f:	e0 70 e0 70 f0 f0 70 e0 3f c0 1f 80 0c 12 24 0e     .p.p..p.?.....$.
    1c5f:	01 00 39 c0 39 c0 39 c0 00 00 00 00 00 00 1f 80     ..9.9.9.........
    1c6f:	3f c0 70 e0 f0 e0 e0 70 e0 70 e0 70 e0 70 f0 f0     ?.p....p.p.p.p..
    1c7f:	70 e0 3f c0 1f 80 0e 0a 14 18 05 02 07 00 07 00     p.?.............
    1c8f:	06 00 00 00 ff fc ff fc 00 00 02 00 07 00 07 00     ................
    1c9f:	0c 0f 1e 0e 01 fe 00 20 00 30 1f e0 3f c0 71 e0     ....... .0..?.q.
    1caf:	f1 f0 e3 70 e6 70 ec 70 f8 70 f8 f0 70 e0 7f c0     ...p.p.p.p..p...
    1cbf:	df 80 c0 00 0b 13 26 0d 01 00 70 00 38 00 1c 00     ......&...p.8...
    1ccf:	0c 00 06 00 00 00 00 00 e0 e0 e0 e0 e0 e0 e0 e0     ................
    1cdf:	e0 e0 e0 e0 e0 e0 e0 e0 e0 e0 f1 e0 7f e0 3e e0     ..............>.
    1cef:	0b 13 26 0d 01 00 03 80 03 80 07 00 06 00 0c 00     ..&.............
    1cff:	00 00 00 00 e0 e0 e0 e0 e0 e0 e0 e0 e0 e0 e0 e0     ................
    1d0f:	e0 e0 e0 e0 e0 e0 f1 e0 7f e0 3e e0 0b 13 26 0d     ..........>...&.
    1d1f:	01 00 0e 00 1f 00 1b 00 31 80 20 80 00 00 00 00     ........1. .....
    1d2f:	e0 e0 e0 e0 e0 e0 e0 e0 e0 e0 e0 e0 e0 e0 e0 e0     ................
    1d3f:	e0 e0 f1 e0 7f e0 3e e0 0b 12 24 0d 01 00 73 80     ......>...$...s.
    1d4f:	73 80 73 80 00 00 00 00 00 00 e0 e0 e0 e0 e0 e0     s.s.............
    1d5f:	e0 e0 e0 e0 e0 e0 e0 e0 e0 e0 e0 e0 f1 e0 7f e0     ................
    1d6f:	3e e0 0b 17 2e 0d 01 fb 01 80 03 80 03 00 06 00     >...............
    1d7f:	00 00 00 00 e0 e0 e0 e0 f1 e0 71 c0 79 c0 3b c0     ..........q.y.;.
    1d8f:	3b 80 3f 80 1f 80 1f 00 1f 00 0f 00 0e 00 0e 00     ;.?.............
    1d9f:	fe 00 fc 00 78 00 0c 16 2c 0f 02 fb e0 00 e0 00     ....x...,.......
    1daf:	e0 00 e0 00 e0 00 ef 80 ff c0 f8 e0 f0 f0 e0 70     ...............p
    1dbf:	e0 70 e0 70 e0 70 f0 f0 f1 e0 ff c0 ef 80 e0 00     .p.p.p..........
    1dcf:	e0 00 e0 00 e0 00 e0 00 0c 16 2c 0e 01 fb 39 c0     ..........,...9.
    1ddf:	39 c0 39 c0 00 00 00 00 f0 70 f0 f0 70 f0 78 e0     9.9......p..p.x.
    1def:	79 e0 39 c0 3d c0 1f c0 1f 80 1f 80 0f 80 0f 00     y.9.=...........
    1dff:	0f 00 0f 00 0e 00 1e 00 1c 00                       ..........

00001e09 <u8g_font_9x18r>:
    1e09:	00 09 12 00 fc 0a 01 e8 03 d7 20 7f fd 0e fd 0b     .......... .....
    1e19:	fd 00 00 00 09 00 0e 01 0b 0b 09 04 00 80 80 80     ................
    1e29:	80 80 80 80 00 00 80 80 04 04 04 09 03 07 90 90     ................
    1e39:	90 90 08 0a 0a 09 00 00 24 24 24 ff 24 24 ff 24     ........$$$.$$.$
    1e49:	24 24 07 0b 0b 09 01 ff 10 7c 92 90 50 38 14 12     $$.......|..P8..
    1e59:	92 7c 10 07 0a 0a 09 01 00 42 a4 a4 48 10 10 24     .|.......B..H..$
    1e69:	4a 4a 84 07 0a 0a 09 01 00 60 90 90 90 60 62 94     JJ.......`...`b.
    1e79:	88 94 62 01 04 04 09 04 07 80 80 80 80 03 0c 0c     ..b.............
    1e89:	09 03 ff 20 40 40 80 80 80 80 80 80 40 40 20 03     ... @@......@@ .
    1e99:	0c 0c 09 03 ff 80 40 40 20 20 20 20 20 20 40 40     ......@@      @@
    1ea9:	80 07 07 07 09 01 03 10 92 54 38 54 92 10 07 07     .........T8T....
    1eb9:	07 09 01 01 10 10 10 fe 10 10 10 02 04 04 09 04     ................
    1ec9:	fe c0 c0 40 80 07 01 01 09 01 04 fe 02 02 02 09     ...@............
    1ed9:	04 00 c0 c0 07 0a 0a 09 01 00 02 04 04 08 10 10     ................
    1ee9:	20 40 40 80 07 0a 0a 09 01 00 38 44 82 82 82 82      @@.......8D....
    1ef9:	82 82 44 38 07 0a 0a 09 01 00 10 30 50 90 10 10     ..D8.......0P...
    1f09:	10 10 10 fe 07 0a 0a 09 01 00 38 44 82 02 04 08     ..........8D....
    1f19:	10 20 40 fe 07 0a 0a 09 01 00 fe 02 04 08 18 04     . @.............
    1f29:	02 02 84 78 07 0a 0a 09 01 00 04 0c 14 24 44 84     ...x.........$D.
    1f39:	fe 04 04 04 07 0a 0a 09 01 00 fe 80 80 80 f8 04     ................
    1f49:	02 02 84 78 07 0a 0a 09 01 00 3c 40 80 80 b8 c4     ...x......<@....
    1f59:	82 82 44 38 07 0a 0a 09 01 00 fe 02 04 04 08 08     ..D8............
    1f69:	10 10 10 10 07 0a 0a 09 01 00 38 44 82 44 38 44     ..........8D.D8D
    1f79:	82 82 44 38 07 0a 0a 09 01 00 38 44 82 82 46 3a     ..D8......8D..F:
    1f89:	02 02 04 78 02 07 07 09 04 00 c0 c0 00 00 00 c0     ...x............
    1f99:	c0 02 09 09 09 04 fe c0 c0 00 00 00 c0 c0 40 80     ..............@.
    1fa9:	05 09 09 09 02 00 08 10 20 40 80 40 20 10 08 07     ........ @.@ ...
    1fb9:	04 04 09 01 02 fe 00 00 fe 05 09 09 09 02 00 80     ................
    1fc9:	40 20 10 08 10 20 40 80 07 0a 0a 09 01 00 38 44     @ ... @.......8D
    1fd9:	82 02 04 08 10 10 00 10 07 0a 0a 09 01 00 38 44     ..............8D
    1fe9:	9a aa aa aa aa 9c 40 3c 07 0a 0a 09 01 00 10 28     ......@<.......(
    1ff9:	28 28 44 7c 44 82 82 82 07 0a 0a 09 01 00 f8 84     ((D|D...........
    2009:	82 84 f8 84 82 82 84 f8 07 0a 0a 09 01 00 3c 42     ..............<B
    2019:	80 80 80 80 80 80 42 3c 07 0a 0a 09 01 00 f8 84     ......B<........
    2029:	82 82 82 82 82 82 84 f8 07 0a 0a 09 01 00 fe 80     ................
    2039:	80 80 f8 80 80 80 80 fe 07 0a 0a 09 01 00 fe 80     ................
    2049:	80 80 f8 80 80 80 80 80 07 0a 0a 09 01 00 38 44     ..............8D
    2059:	82 80 80 8e 82 82 44 38 07 0a 0a 09 01 00 82 82     ......D8........
    2069:	82 82 fe 82 82 82 82 82 05 0a 0a 09 02 00 f8 20     ............... 
    2079:	20 20 20 20 20 20 20 f8 07 0a 0a 09 01 00 3e 08            .......>.
    2089:	08 08 08 08 08 88 88 70 07 0a 0a 09 01 00 82 84     .......p........
    2099:	88 90 a0 d0 88 84 82 82 07 0a 0a 09 01 00 80 80     ................
    20a9:	80 80 80 80 80 80 80 fe 07 0a 0a 09 01 00 82 82     ................
    20b9:	c6 aa 92 82 82 82 82 82 07 0a 0a 09 01 00 82 82     ................
    20c9:	c2 a2 92 8a 86 82 82 82 07 0a 0a 09 01 00 7c 82     ..............|.
    20d9:	82 82 82 82 82 82 82 7c 07 0a 0a 09 01 00 f8 84     .......|........
    20e9:	82 82 84 f8 80 80 80 80 08 0b 0b 09 01 ff 38 44     ..............8D
    20f9:	82 82 82 82 82 8a 44 3a 01 07 0a 0a 09 01 00 f8     ......D:........
    2109:	84 82 82 84 f8 90 88 84 82 07 0a 0a 09 01 00 7c     ...............|
    2119:	82 80 80 7c 02 02 02 82 7c 07 0a 0a 09 01 00 fe     ...|....|.......
    2129:	10 10 10 10 10 10 10 10 10 07 0a 0a 09 01 00 82     ................
    2139:	82 82 82 82 82 82 82 44 38 07 0a 0a 09 01 00 82     .......D8.......
    2149:	82 82 44 44 44 28 28 28 10 07 0a 0a 09 01 00 82     ..DDD(((........
    2159:	82 82 82 92 92 92 92 aa 44 07 0a 0a 09 01 00 82     ........D.......
    2169:	82 44 28 10 10 28 44 82 82 07 0a 0a 09 01 00 82     .D(..(D.........
    2179:	82 44 28 10 10 10 10 10 10 07 0a 0a 09 01 00 fe     .D(.............
    2189:	02 04 08 10 20 40 80 80 fe 04 0c 0c 09 03 ff f0     .... @..........
    2199:	80 80 80 80 80 80 80 80 80 80 f0 07 0a 0a 09 01     ................
    21a9:	00 80 40 40 20 10 10 08 04 04 02 04 0c 0c 09 02     ..@@ ...........
    21b9:	ff f0 10 10 10 10 10 10 10 10 10 10 f0 07 04 04     ................
    21c9:	09 01 06 10 28 44 82 08 01 01 09 00 ff ff 03 03     ....(D..........
    21d9:	03 09 03 0a 80 40 20 07 07 07 09 01 00 7c 02 02     .....@ ......|..
    21e9:	7e 82 86 7a 07 0a 0a 09 01 00 80 80 80 bc c2 82     ~..z............
    21f9:	82 82 c2 bc 07 07 07 09 01 00 7c 82 80 80 80 82     ..........|.....
    2209:	7c 07 0a 0a 09 01 00 02 02 02 7a 86 82 82 82 86     |.........z.....
    2219:	7a 07 07 07 09 01 00 7c 82 82 fe 80 82 7c 07 0a     z......|.....|..
    2229:	0a 09 01 00 1c 22 22 20 20 f8 20 20 20 20 07 0a     .....""  .    ..
    2239:	0a 09 01 fd 7a 84 84 84 78 80 7c 82 82 7c 07 0a     ....z...x.|..|..
    2249:	0a 09 01 00 80 80 80 bc c2 82 82 82 82 82 05 0a     ................
    2259:	0a 09 02 00 60 00 00 e0 20 20 20 20 20 f8 05 0d     ....`...     ...
    2269:	0d 09 02 fd 18 00 00 38 08 08 08 08 08 08 88 88     .......8........
    2279:	70 07 0a 0a 09 01 00 80 80 80 84 88 90 b0 c8 84     p...............
    2289:	82 05 0a 0a 09 02 00 e0 20 20 20 20 20 20 20 20     ........        
    2299:	f8 07 07 07 09 01 00 ec 92 92 92 92 92 82 07 07     ................
    22a9:	07 09 01 00 bc c2 82 82 82 82 82 07 07 07 09 01     ................
    22b9:	00 7c 82 82 82 82 82 7c 07 0a 0a 09 01 fd b8 c4     .|.....|........
    22c9:	82 82 82 c4 b8 80 80 80 07 0a 0a 09 01 fd 3a 46     ..............:F
    22d9:	82 82 82 46 3a 02 02 02 07 07 07 09 01 00 9c 62     ...F:..........b
    22e9:	42 40 40 40 40 07 07 07 09 01 00 7c 82 80 7c 02     B@@@@......|..|.
    22f9:	82 7c 07 09 09 09 01 00 20 20 fc 20 20 20 20 22     .|......  .    "
    2309:	1c 07 07 07 09 01 00 82 82 82 82 82 86 7a 07 07     .............z..
    2319:	07 09 01 00 82 82 44 44 28 28 10 07 07 07 09 01     ......DD((......
    2329:	00 82 82 92 92 92 aa 44 07 07 07 09 01 00 82 44     .......D.......D
    2339:	28 10 28 44 82 07 0a 0a 09 01 fd 42 42 24 24 24     (.(D.......BB$$$
    2349:	18 18 10 90 60 07 07 07 09 01 00 fe 04 08 10 20     ....`.......... 
    2359:	40 fe 06 0b 0b 09 02 00 1c 20 20 20 20 c0 20 20     @........    .  
    2369:	20 20 1c 01 0c 0c 09 04 ff 80 80 80 80 80 80 80       ..............
    2379:	80 80 80 80 80 06 0b 0b 09 01 00 e0 10 10 10 10     ................
    2389:	0c 10 10 10 10 e0 07 03 03 09 01 07 62 92 8c ff     ............b...

00002399 <u8g_font_6x10>:
    2399:	01 06 0a 00 fe 07 01 36 02 68 20 ff fe 08 fe 07     .......6.h .....
    23a9:	fe 0a 00 60 22 17 67 80 80 80 80 80 00 80 16 33     ...`".g........3
    23b9:	63 a0 a0 a0 02 57 67 50 50 f8 50 f8 50 50 02 57     c....WgPP.P.PP.W
    23c9:	67 20 70 a0 70 28 70 20 02 57 67 48 a8 50 20 50     g p.p(p .WgH.P P
    23d9:	a8 90 02 57 67 40 a0 a0 40 a8 90 68 26 13 63 80     ...Wg@..@..h&.c.
    23e9:	80 80 12 37 67 20 40 80 80 80 40 20 12 37 67 80     ...7g @...@ .7g.
    23f9:	40 20 20 20 40 80 03 55 65 88 50 f8 50 88 03 55     @   @..Ue.P.P..U
    2409:	65 20 20 f8 20 20 11 33 63 60 40 80 05 51 61 f8     e  .  .3c`@..Qa.
    2419:	11 33 63 40 e0 40 02 57 67 08 08 10 20 40 80 80     .3c@.@.Wg... @..
    2429:	02 57 67 20 50 88 88 88 50 20 02 57 67 20 60 a0     .Wg P...P .Wg `.
    2439:	20 20 20 f8 02 57 67 70 88 08 30 40 80 f8 02 57        ..Wgp..0@...W
    2449:	67 f8 08 10 30 08 88 70 02 57 67 10 30 50 90 f8     g...0..p.Wg.0P..
    2459:	10 10 02 57 67 f8 80 b0 c8 08 88 70 02 57 67 30     ...Wg......p.Wg0
    2469:	40 80 b0 c8 88 70 02 57 67 f8 08 10 10 20 40 40     @....p.Wg.... @@
    2479:	02 57 67 70 88 88 70 88 88 70 02 57 67 70 88 98     .Wgp..p..p.Wgp..
    2489:	68 08 10 60 11 37 67 40 e0 40 00 40 e0 40 11 37     h..`.7g@.@.@.@.7
    2499:	67 40 e0 40 00 60 40 80 12 47 67 10 20 40 80 40     g@.@.`@..Gg. @.@
    24a9:	20 10 04 53 63 f8 00 f8 12 47 67 80 40 20 10 20      ..Sc....Gg.@ . 
    24b9:	40 80 02 57 67 70 88 10 20 20 00 20 02 57 67 70     @..Wgp..  . .Wgp
    24c9:	88 98 a8 b0 80 70 02 57 67 20 50 88 88 f8 88 88     .....p.Wg P.....
    24d9:	02 57 67 f0 48 48 70 48 48 f0 02 57 67 70 88 80     .Wg.HHpHH..Wgp..
    24e9:	80 80 88 70 02 57 67 f0 48 48 48 48 48 f0 02 57     ...p.Wg.HHHHH..W
    24f9:	67 f8 80 80 f0 80 80 f8 02 57 67 f8 80 80 f0 80     g........Wg.....
    2509:	80 80 02 57 67 70 88 80 80 98 88 70 02 57 67 88     ...Wgp.....p.Wg.
    2519:	88 88 f8 88 88 88 12 37 67 e0 40 40 40 40 40 e0     .......7g.@@@@@.
    2529:	02 57 67 38 10 10 10 10 90 60 02 57 67 88 90 a0     .Wg8.....`.Wg...
    2539:	c0 a0 90 88 02 57 67 80 80 80 80 80 80 f8 02 57     .....Wg........W
    2549:	67 88 88 d8 a8 88 88 88 02 57 67 88 88 c8 a8 98     g........Wg.....
    2559:	88 88 02 57 67 70 88 88 88 88 88 70 02 57 67 f0     ...Wgp.....p.Wg.
    2569:	88 88 f0 80 80 80 01 58 68 70 88 88 88 88 a8 70     .......Xhp.....p
    2579:	08 02 57 67 f0 88 88 f0 a0 90 88 02 57 67 70 88     ..Wg........Wgp.
    2589:	80 70 08 88 70 02 57 67 f8 20 20 20 20 20 20 02     .p..p.Wg.      .
    2599:	57 67 88 88 88 88 88 88 70 02 57 67 88 88 88 50     Wg......p.Wg...P
    25a9:	50 50 20 02 57 67 88 88 88 a8 a8 d8 88 02 57 67     PP .Wg........Wg
    25b9:	88 88 50 20 50 88 88 02 57 67 88 88 50 20 20 20     ..P P...Wg..P   
    25c9:	20 02 57 67 f8 08 10 20 40 80 f8 12 37 67 e0 80      .Wg... @...7g..
    25d9:	80 80 80 80 e0 02 57 67 80 80 40 20 10 08 08 12     ......Wg..@ ....
    25e9:	37 67 e0 20 20 20 20 20 e0 06 53 63 20 50 88 01     7g.     ..Sc P..
    25f9:	51 61 f8 28 22 62 80 40 02 55 65 70 08 78 88 78     Qa.("b.@.Uep.x.x
    2609:	02 57 67 80 80 b0 c8 88 c8 b0 02 55 65 70 88 80     .Wg........Uep..
    2619:	88 70 02 57 67 08 08 68 98 88 98 68 02 55 65 70     .p.Wg..h...h.Uep
    2629:	88 f8 80 70 02 57 67 30 48 40 f0 40 40 40 00 57     ...p.Wg0H@.@@@.W
    2639:	67 78 88 88 78 08 88 70 02 57 67 80 80 b0 c8 88     gx..x..p.Wg.....
    2649:	88 88 12 37 67 40 00 c0 40 40 40 e0 10 49 69 10     ...7g@..@@@..Ii.
    2659:	00 30 10 10 10 90 90 60 02 57 67 80 80 88 90 e0     .0.....`.Wg.....
    2669:	90 88 12 37 67 c0 40 40 40 40 40 e0 02 55 65 d0     ...7g.@@@@@..Ue.
    2679:	a8 a8 a8 88 02 55 65 b0 c8 88 88 88 02 55 65 70     .....Ue......Uep
    2689:	88 88 88 70 00 57 67 b0 c8 88 c8 b0 80 80 00 57     ...p.Wg........W
    2699:	67 68 98 88 98 68 08 08 02 55 65 b0 c8 80 80 80     gh...h...Ue.....
    26a9:	02 55 65 70 80 70 08 f0 02 57 67 40 40 f0 40 40     .Uep.p...Wg@@.@@
    26b9:	48 30 02 55 65 88 88 88 98 68 02 55 65 88 88 50     H0.Ue....h.Ue..P
    26c9:	50 20 02 55 65 88 88 a8 a8 50 02 55 65 88 50 20     P .Ue....P.Ue.P 
    26d9:	50 88 00 57 67 88 88 98 68 08 88 70 02 55 65 f8     P..Wg...h..p.Ue.
    26e9:	10 20 40 f8 12 47 67 30 40 20 c0 20 40 30 22 17     . @..Gg0@ . @0".
    26f9:	67 80 80 80 80 80 80 80 12 47 67 c0 20 40 30 40     g........Gg. @0@
    2709:	20 c0 06 53 63 48 a8 90 ff ff ff ff ff ff ff ff      ..ScH..........
    2719:	ff ff ff ff ff ff ff ff ff ff ff ff ff ff ff ff     ................
    2729:	ff ff ff ff ff ff ff ff ff 0a 00 60 22 17 67 80     ...........`".g.
    2739:	00 80 80 80 80 80 01 57 67 20 78 a0 a0 a0 78 20     .......Wg x...x 
    2749:	02 57 67 30 48 40 e0 40 48 b0 02 55 65 88 70 50     .Wg0H@.@H..Ue.pP
    2759:	70 88 01 58 68 88 88 50 20 f8 20 20 20 22 17 67     p..Xh..P .   ".g
    2769:	80 80 80 00 80 80 80 01 58 68 70 80 e0 90 48 38     ........Xhp...H8
    2779:	08 70 19 31 61 a0 02 57 67 70 88 a8 c8 a8 88 70     .p.1a..Wgp.....p
    2789:	13 46 66 70 90 b0 50 00 f0 02 65 65 24 48 90 48     .Ffp..P...ee$H.H
    2799:	24 14 42 62 f0 10 15 41 61 f0 02 57 67 70 88 e8     $.Bb...Aa..Wgp..
    27a9:	c8 c8 88 70 09 51 61 f8 16 33 63 40 a0 40 02 56     ...p.Qa..3c@.@.V
    27b9:	66 20 20 f8 20 20 f8 15 45 65 60 90 20 40 f0 15     f  .  ..Ee`. @..
    27c9:	45 65 e0 10 60 10 e0 28 22 62 40 80 01 56 66 88     Ee..`..("b@..Vf.
    27d9:	88 88 c8 b0 80 02 57 67 78 e8 e8 68 28 28 28 25     ......Wgx..h(((%
    27e9:	11 61 80 20 22 62 40 80 15 35 65 40 c0 40 40 e0     .a. "b@..5e@.@@.
    27f9:	13 46 66 60 90 90 60 00 f0 02 65 65 90 48 24 48     .Ff`..`...ee.H$H
    2809:	90 01 69 69 40 c0 40 40 e4 0c 14 3c 04 01 69 69     ..ii@.@@...<..ii
    2819:	40 c0 40 40 e8 14 04 08 1c 01 59 69 c0 20 40 20     @.@@......Yi. @ 
    2829:	c8 18 28 78 08 02 57 67 20 00 20 20 40 88 70 02     ..(x..Wg .  @.p.
    2839:	58 68 40 20 70 88 88 f8 88 88 02 58 68 10 20 70     Xh@ p......Xh. p
    2849:	88 88 f8 88 88 02 58 68 20 50 70 88 88 f8 88 88     ......Xh Pp.....
    2859:	02 58 68 48 b0 70 88 88 f8 88 88 02 58 68 50 00     .XhH.p......XhP.
    2869:	70 88 88 f8 88 88 02 58 68 20 50 70 88 88 f8 88     p......Xh Pp....
    2879:	88 02 67 67 3c 50 90 9c f0 90 9c 00 59 69 70 88     ..gg<P......Yip.
    2889:	80 80 80 88 70 20 40 02 58 68 40 f8 80 80 f0 80     ....p @.Xh@.....
    2899:	80 f8 02 58 68 10 f8 80 80 f0 80 80 f8 02 58 68     ...Xh.........Xh
    28a9:	20 f8 80 80 f0 80 80 f8 02 58 68 50 f8 80 80 f0      ........XhP....
    28b9:	80 80 f8 12 38 68 80 40 e0 40 40 40 40 e0 12 38     ....8h.@.@@@@..8
    28c9:	68 20 40 e0 40 40 40 40 e0 12 38 68 40 a0 e0 40     h @.@@@@..8h@..@
    28d9:	40 40 40 e0 12 38 68 a0 00 e0 40 40 40 40 e0 02     @@@..8h...@@@@..
    28e9:	57 67 f0 48 48 e8 48 48 f0 02 58 68 28 50 88 c8     Wg.HH.HH..Xh(P..
    28f9:	a8 98 88 88 02 58 68 40 20 70 88 88 88 88 70 02     .....Xh@ p....p.
    2909:	58 68 10 20 70 88 88 88 88 70 02 58 68 20 50 70     Xh. p....p.Xh Pp
    2919:	88 88 88 88 70 02 58 68 28 50 70 88 88 88 88 70     ....p.Xh(Pp....p
    2929:	02 58 68 50 00 70 88 88 88 88 70 02 55 65 88 50     .XhP.p....p.Ue.P
    2939:	20 50 88 02 57 67 70 98 98 a8 c8 c8 70 02 58 68      P..Wgp.....p.Xh
    2949:	40 20 88 88 88 88 88 70 02 58 68 10 20 88 88 88     @ .....p.Xh. ...
    2959:	88 88 70 02 58 68 20 50 00 88 88 88 88 70 02 58     ..p.Xh P.....p.X
    2969:	68 50 00 88 88 88 88 88 70 02 58 68 10 20 88 88     hP......p.Xh. ..
    2979:	50 20 20 20 02 57 67 80 f0 88 f0 80 80 80 02 57     P   .Wg........W
    2989:	67 70 88 90 a0 90 88 b0 02 58 68 40 20 00 70 08     gp.......Xh@ .p.
    2999:	78 88 78 02 58 68 10 20 00 70 08 78 88 78 02 58     x.x.Xh. .p.x.x.X
    29a9:	68 20 50 00 70 08 78 88 78 02 58 68 28 50 00 70     h P.p.x.x.Xh(P.p
    29b9:	08 78 88 78 02 57 67 50 00 70 08 78 88 78 02 58     .x.x.WgP.p.x.x.X
    29c9:	68 20 50 20 70 08 78 88 78 02 65 65 78 14 7c 90     h P p.x.x.eex.|.
    29d9:	7c 00 57 67 70 88 80 88 70 20 40 02 58 68 40 20     |.Wgp...p @.Xh@ 
    29e9:	00 70 88 f8 80 70 02 58 68 10 20 00 70 88 f8 80     .p...p.Xh. .p...
    29f9:	70 02 58 68 20 50 00 70 88 f8 80 70 02 57 67 50     p.Xh P.p...p.WgP
    2a09:	00 70 88 f8 80 70 12 38 68 80 40 00 c0 40 40 40     .p...p.8h.@..@@@
    2a19:	e0 12 38 68 40 80 00 c0 40 40 40 e0 12 38 68 40     ..8h@...@@@..8h@
    2a29:	a0 00 c0 40 40 40 e0 12 37 67 a0 00 c0 40 40 40     ...@@@..7g...@@@
    2a39:	e0 02 57 67 c0 30 70 88 88 88 70 02 58 68 28 50     ..Wg.0p...p.Xh(P
    2a49:	00 b0 c8 88 88 88 02 58 68 40 20 00 70 88 88 88     .......Xh@ .p...
    2a59:	70 02 58 68 10 20 00 70 88 88 88 70 02 58 68 20     p.Xh. .p...p.Xh 
    2a69:	50 00 70 88 88 88 70 02 58 68 28 50 00 70 88 88     P.p...p.Xh(P.p..
    2a79:	88 70 02 57 67 50 00 70 88 88 88 70 03 55 65 20     .p.WgP.p...p.Ue 
    2a89:	00 f8 00 20 02 55 65 78 98 a8 c8 f0 02 58 68 40     ... .Uex.....Xh@
    2a99:	20 00 88 88 88 98 68 02 58 68 10 20 00 88 88 88      .....h.Xh. ....
    2aa9:	98 68 02 58 68 20 50 00 88 88 88 98 68 02 57 67     .h.Xh P.....h.Wg
    2ab9:	50 00 88 88 88 98 68 00 59 69 10 20 88 88 98 68     P.....h.Yi. ...h
    2ac9:	08 88 70 00 58 68 80 f0 88 88 88 f0 80 80 00 59     ..p.Xh.........Y
    2ad9:	69 50 00 88 88 98 68 08 88 70                       iP....h..p

00002ae3 <u8g_font_10x20>:
    2ae3:	00 0a 14 00 fc 0d 02 4a 04 99 20 ff fc 10 fc 0d     .......J.. .....
    2af3:	fc 00 00 00 0a 00 10 02 0d 0d 0a 04 00 c0 c0 c0     ................
    2b03:	c0 c0 c0 c0 c0 c0 c0 00 c0 c0 06 04 04 0a 02 09     ................
    2b13:	cc cc cc 48 09 0b 16 0a 01 01 1b 00 1b 00 1b 00     ...H............
    2b23:	7f 80 36 00 36 00 36 00 ff 00 6c 00 6c 00 6c 00     ..6.6.6...l.l.l.
    2b33:	08 0d 0d 0a 01 00 18 7e db d8 d8 d8 7e 1b 1b 1b     .......~....~...
    2b43:	db 7e 18 09 0c 18 0a 01 00 73 00 db 00 de 00 76     .~.......s.....v
    2b53:	00 0c 00 0c 00 18 00 18 00 37 00 3d 80 6d 80 67     .........7.=.m.g
    2b63:	00 09 0d 1a 0a 01 00 38 00 6c 00 6c 00 6c 00 78     .......8.l.l.l.x
    2b73:	00 30 00 70 00 d8 00 cd 80 c7 00 c6 00 ef 00 79     .0.p...........y
    2b83:	80 02 05 05 0a 04 08 c0 c0 c0 c0 80 05 0d 0d 0a     ................
    2b93:	03 00 18 30 60 60 c0 c0 c0 c0 c0 60 60 30 18 05     ...0``.....``0..
    2ba3:	0d 0d 0a 02 00 c0 60 30 30 18 18 18 18 18 30 30     ......`00.....00
    2bb3:	60 c0 08 07 07 0a 01 03 66 66 3c ff 3c 66 66 08     `.......ff<.<ff.
    2bc3:	07 07 0a 01 03 18 18 18 ff 18 18 18 04 03 03 0a     ................
    2bd3:	03 ff 70 70 e0 08 01 01 0a 01 06 ff 03 03 03 0a     ..pp............
    2be3:	04 00 e0 e0 e0 07 0c 0c 0a 02 00 06 06 0c 0c 18     ................
    2bf3:	18 30 30 60 60 c0 c0 08 0d 0d 0a 01 00 18 3c 66     .00``.........<f
    2c03:	66 c3 c3 c3 c3 c3 66 66 3c 18 08 0d 0d 0a 01 00     f.....ff<.......
    2c13:	18 38 78 d8 18 18 18 18 18 18 18 18 ff 08 0d 0d     .8x.............
    2c23:	0a 01 00 3c 66 c3 c3 03 03 06 1c 30 60 c0 c0 ff     ...<f......0`...
    2c33:	08 0d 0d 0a 01 00 3c 66 c3 c3 03 06 1c 06 03 c3     ......<f........
    2c43:	c3 66 3c 08 0d 0d 0a 01 00 02 06 0e 1e 36 66 c6     .f<..........6f.
    2c53:	c6 ff 06 06 06 06 08 0d 0d 0a 01 00 ff c0 c0 c0     ................
    2c63:	c0 dc e6 03 03 03 c3 66 3c 08 0d 0d 0a 01 00 3c     .......f<......<
    2c73:	66 c2 c0 c0 dc e6 c3 c3 c3 c3 66 3c 08 0d 0d 0a     f.........f<....
    2c83:	01 00 ff 03 03 06 06 0c 0c 18 18 30 30 60 60 08     ...........00``.
    2c93:	0d 0d 0a 01 00 3c 66 c3 c3 c3 66 3c 66 c3 c3 c3     .....<f...f<f...
    2ca3:	66 3c 08 0d 0d 0a 01 00 3c 66 c3 c3 c3 c3 67 3b     f<......<f....g;
    2cb3:	03 03 43 66 3c 03 08 08 0a 04 00 e0 e0 00 00 00     ..Cf<...........
    2cc3:	00 e0 e0 04 09 09 0a 03 ff 70 70 00 00 00 00 70     .........pp....p
    2cd3:	70 e0 07 0d 0d 0a 01 00 02 06 0c 18 30 60 c0 60     p...........0`.`
    2ce3:	30 18 0c 06 02 08 06 06 0a 01 03 ff 00 00 00 00     0...............
    2cf3:	ff 07 0d 0d 0a 02 00 80 c0 60 30 18 0c 06 0c 18     .........`0.....
    2d03:	30 60 c0 80 08 0d 0d 0a 01 00 3c 66 c3 c3 c3 06     0`........<f....
    2d13:	0c 18 18 18 00 18 18 08 0d 0d 0a 01 00 3c 66 c3     .............<f.
    2d23:	cf df db db db de cc c0 63 3e 08 0d 0d 0a 01 00     ........c>......
    2d33:	18 3c 66 66 c3 c3 c3 ff c3 c3 c3 c3 c3 08 0d 0d     .<ff............
    2d43:	0a 01 00 f8 cc c6 c6 c6 cc fc c6 c3 c3 c3 c6 fc     ................
    2d53:	08 0d 0d 0a 01 00 3c 66 c3 c0 c0 c0 c0 c0 c0 c0     ......<f........
    2d63:	c3 66 3c 08 0d 0d 0a 01 00 fc c6 c3 c3 c3 c3 c3     .f<.............
    2d73:	c3 c3 c3 c3 c6 fc 08 0d 0d 0a 01 00 ff c0 c0 c0     ................
    2d83:	c0 c0 fc c0 c0 c0 c0 c0 ff 08 0d 0d 0a 01 00 ff     ................
    2d93:	c0 c0 c0 c0 c0 fc c0 c0 c0 c0 c0 c0 08 0d 0d 0a     ................
    2da3:	01 00 3c 66 c3 c0 c0 c0 cf c3 c3 c3 c3 67 3d 08     ..<f.........g=.
    2db3:	0d 0d 0a 01 00 c3 c3 c3 c3 c3 c3 ff c3 c3 c3 c3     ................
    2dc3:	c3 c3 08 0d 0d 0a 01 00 ff 18 18 18 18 18 18 18     ................
    2dd3:	18 18 18 18 ff 09 0d 1a 0a 01 00 1f 80 06 00 06     ................
    2de3:	00 06 00 06 00 06 00 06 00 06 00 06 00 c6 00 c6     ................
    2df3:	00 6c 00 38 00 08 0d 0d 0a 01 00 c3 c3 c6 c6 cc     .l.8............
    2e03:	cc f8 cc cc c6 c6 c3 c3 08 0d 0d 0a 01 00 c0 c0     ................
    2e13:	c0 c0 c0 c0 c0 c0 c0 c0 c0 c0 ff 08 0d 0d 0a 01     ................
    2e23:	00 c3 c3 e7 e7 ff db db db db c3 c3 c3 c3 08 0d     ................
    2e33:	0d 0a 01 00 c3 e3 e3 f3 f3 db db cf cf c7 c7 c3     ................
    2e43:	c3 08 0d 0d 0a 01 00 3c 66 c3 c3 c3 c3 c3 c3 c3     .......<f.......
    2e53:	c3 c3 66 3c 08 0d 0d 0a 01 00 fc c6 c3 c3 c3 c3     ..f<............
    2e63:	c6 fc c0 c0 c0 c0 c0 08 0e 0e 0a 01 ff 3c 66 c3     .............<f.
    2e73:	c3 c3 c3 c3 c3 c3 db cf 66 3e 03 08 0d 0d 0a 01     ........f>......
    2e83:	00 fc c6 c3 c3 c3 c3 c6 fc cc c6 c6 c3 c3 08 0d     ................
    2e93:	0d 0a 01 00 3c 66 c3 c0 c0 60 3c 06 03 03 c3 66     ....<f...`<....f
    2ea3:	3c 08 0d 0d 0a 01 00 ff 18 18 18 18 18 18 18 18     <...............
    2eb3:	18 18 18 18 08 0d 0d 0a 01 00 c3 c3 c3 c3 c3 c3     ................
    2ec3:	c3 c3 c3 c3 c3 66 3c 08 0d 0d 0a 01 00 c3 c3 c3     .....f<.........
    2ed3:	c3 66 66 66 3c 3c 3c 18 18 18 08 0d 0d 0a 01 00     .fff<<<.........
    2ee3:	c3 c3 c3 c3 c3 db db db db e7 e7 c3 c3 08 0d 0d     ................
    2ef3:	0a 01 00 c3 c3 66 66 3c 3c 18 3c 3c 66 66 c3 c3     .....ff<<.<<ff..
    2f03:	08 0d 0d 0a 01 00 c3 c3 66 66 3c 3c 18 18 18 18     ........ff<<....
    2f13:	18 18 18 08 0d 0d 0a 01 00 ff 03 03 06 0c 0c 18     ................
    2f23:	30 30 60 c0 c0 ff 06 0d 0d 0a 02 00 fc c0 c0 c0     00`.............
    2f33:	c0 c0 c0 c0 c0 c0 c0 c0 fc 07 0c 0c 0a 02 00 c0     ................
    2f43:	c0 60 60 30 30 18 18 0c 0c 06 06 06 0d 0d 0a 02     .``00...........
    2f53:	00 fc 0c 0c 0c 0c 0c 0c 0c 0c 0c 0c 0c fc 08 04     ................
    2f63:	04 0a 01 09 18 3c 66 c3 09 01 02 0a 01 ff ff 80     .....<f.........
    2f73:	04 03 03 0a 03 0a c0 60 30 08 08 08 0a 01 00 3e     .......`0......>
    2f83:	63 03 7f c3 c3 c3 7d 08 0d 0d 0a 01 00 c0 c0 c0     c.....}.........
    2f93:	c0 c0 dc e6 c3 c3 c3 c3 e6 dc 08 08 08 0a 01 00     ................
    2fa3:	3e 63 c0 c0 c0 c0 63 3e 08 0d 0d 0a 01 00 03 03     >c....c>........
    2fb3:	03 03 03 3b 67 c3 c3 c3 c3 67 3b 08 08 08 0a 01     ...;g....g;.....
    2fc3:	00 3c 66 c3 ff c0 c0 63 3e 08 0d 0d 0a 01 00 1e     .<f....c>.......
    2fd3:	33 33 30 30 fc 30 30 30 30 30 30 30 08 0c 0c 0a     3300.0000000....
    2fe3:	01 fc 7d c7 c6 c6 c6 7c c0 7e c3 c3 c3 7e 08 0d     ..}....|.~...~..
    2ff3:	0d 0a 01 00 c0 c0 c0 c0 c0 dc e6 c3 c3 c3 c3 c3     ................
    3003:	c3 08 0b 0b 0a 01 00 18 18 00 78 18 18 18 18 18     ..........x.....
    3013:	18 ff 07 0f 0f 0a 02 fc 06 06 00 1e 06 06 06 06     ................
    3023:	06 06 06 c6 c6 c6 7c 08 0d 0d 0a 01 00 c0 c0 c0     ......|.........
    3033:	c0 c0 c6 cc d8 f0 f8 cc c6 c3 08 0d 0d 0a 01 00     ................
    3043:	78 18 18 18 18 18 18 18 18 18 18 18 ff 08 08 08     x...............
    3053:	0a 01 00 b6 ff db db db db db db 08 08 08 0a 01     ................
    3063:	00 dc e6 c3 c3 c3 c3 c3 c3 08 08 08 0a 01 00 3c     ...............<
    3073:	66 c3 c3 c3 c3 66 3c 08 0c 0c 0a 01 fc dc e6 c3     f....f<.........
    3083:	c3 c3 c3 e6 dc c0 c0 c0 c0 08 0c 0c 0a 01 fc 3b     ...............;
    3093:	67 c3 c3 c3 c3 67 3b 03 03 03 03 08 08 08 0a 01     g....g;.........
    30a3:	00 de 73 60 60 60 60 60 60 08 08 08 0a 01 00 7e     ..s``````......~
    30b3:	c3 c0 7e 03 03 c3 7e 08 0b 0b 0a 01 00 30 30 30     ..~...~......000
    30c3:	fc 30 30 30 30 30 33 1e 08 08 08 0a 01 00 c3 c3     .000003.........
    30d3:	c3 c3 c3 c3 67 3b 08 08 08 0a 01 00 c3 c3 66 66     ....g;........ff
    30e3:	3c 3c 18 18 08 08 08 0a 01 00 c3 c3 c3 db db db     <<..............
    30f3:	ff 66 08 08 08 0a 01 00 c3 66 3c 18 18 3c 66 c3     .f.......f<..<f.
    3103:	08 0c 0c 0a 01 fc c3 c3 c3 c3 c3 c3 67 3b 03 c3     ............g;..
    3113:	66 3c 07 08 08 0a 02 00 fe 06 0c 18 30 60 c0 fe     f<..........0`..
    3123:	08 0d 0d 0a 01 00 0f 18 18 18 18 18 f0 18 18 18     ................
    3133:	18 18 0f 02 0d 0d 0a 04 00 c0 c0 c0 c0 c0 c0 c0     ................
    3143:	c0 c0 c0 c0 c0 c0 08 0d 0d 0a 01 00 f0 18 18 18     ................
    3153:	18 18 0f 18 18 18 18 18 f0 08 03 03 0a 01 0a 73     ...............s
    3163:	db ce ff ff ff ff ff ff ff ff ff ff ff ff ff ff     ................
    3173:	ff ff ff ff ff ff ff ff ff ff ff ff ff ff ff ff     ................
    3183:	ff ff ff 00 00 00 0a 00 10 02 0d 0d 0a 04 00 c0     ................
    3193:	c0 00 c0 c0 c0 c0 c0 c0 c0 c0 c0 c0 07 0c 0c 0a     ................
    31a3:	01 00 18 18 3c 66 c2 c0 c0 c2 66 3c 18 18 09 0c     ....<f....f<....
    31b3:	18 0a 01 00 1e 00 33 00 33 00 30 00 30 00 fc 00     ......3.3.0.0...
    31c3:	30 00 30 00 30 00 f8 00 ad 80 e7 00 09 09 12 0a     0.0.0...........
    31d3:	00 01 80 80 dd 80 7f 00 63 00 63 00 63 00 7f 00     ........c.c.c...
    31e3:	dd 80 80 80 08 0b 0b 0a 01 00 81 c3 66 3c 7e 18     ............f<~.
    31f3:	7e 18 18 18 18 02 0d 0d 0a 04 00 c0 c0 c0 c0 c0     ~...............
    3203:	00 00 00 c0 c0 c0 c0 c0 08 0d 0d 0a 01 00 3c 66     ..............<f
    3213:	c6 60 78 cc 66 33 1e 06 63 66 3c 06 02 02 0a 02     .`x.f3..cf<.....
    3223:	0b cc cc 08 0b 0b 0a 01 00 3c 66 c3 bd a5 a1 a5     .........<f.....
    3233:	bd c3 66 3c 08 09 09 0a 01 04 3e 43 03 7f c3 c3     ..f<......>C....
    3243:	7d 00 ff 09 0b 16 0a 00 00 04 80 0d 80 1b 00 36     }..............6
    3253:	00 6c 00 d8 00 6c 00 36 00 1b 00 0d 80 04 80 08     .l...l.6........
    3263:	04 04 0a 01 04 ff ff 03 03 06 01 01 0a 02 06 fc     ................
    3273:	08 0b 0b 0a 01 00 3c 66 c3 bd a5 bd a9 ad c3 66     ......<f.......f
    3283:	3c 08 01 01 0a 01 0d ff 06 06 06 0a 02 07 30 78     <.............0x
    3293:	cc cc 78 30 08 07 07 0a 01 02 18 18 ff 18 18 00     ..x0............
    32a3:	ff 05 07 07 0a 02 06 70 d8 18 30 60 c0 f8 05 07     .......p..0`....
    32b3:	07 0a 02 06 70 d8 18 30 18 d8 70 04 03 03 0a 03     ....p..0..p.....
    32c3:	0a 30 60 c0 07 0a 0a 0a 01 fd c6 c6 c6 c6 c6 ee     .0`.............
    32d3:	fa c0 c0 c0 08 0d 0d 0a 01 00 7f ff fb fb fb 7b     ...............{
    32e3:	1b 1b 1b 1b 1b 1b 1b 03 03 03 0a 04 05 e0 e0 e0     ................
    32f3:	05 04 04 0a 02 fc 30 18 d8 70 04 07 07 0a 02 06     ......0..p......
    3303:	60 e0 60 60 60 60 f0 07 09 09 0a 01 04 38 6c c6     `.````.......8l.
    3313:	c6 c6 6c 38 00 fe 09 0b 16 0a 01 00 90 00 d8 00     ..l8............
    3323:	6c 00 36 00 1b 00 0d 80 1b 00 36 00 6c 00 d8 00     l.6.......6.l...
    3333:	90 00 08 0c 0c 0a 01 01 40 c0 41 42 e4 08 12 26     ........@.AB...&
    3343:	4a 9e 02 02 08 0c 0c 0a 01 01 40 c0 41 42 e4 08     J.........@.AB..
    3353:	16 29 41 82 04 0f 08 0c 0c 0a 01 01 e0 10 61 12     .)A...........a.
    3363:	e4 08 12 26 4a 9f 02 02 08 0d 0d 0a 01 00 18 18     ...&J...........
    3373:	00 18 18 18 30 60 c3 c3 c3 66 3c 08 0f 0f 0a 01     ....0`...f<.....
    3383:	00 60 30 18 00 18 3c 66 c3 c3 c3 ff c3 c3 c3 c3     .`0...<f........
    3393:	08 0f 0f 0a 01 00 06 0c 18 00 18 3c 66 c3 c3 c3     ...........<f...
    33a3:	ff c3 c3 c3 c3 08 0f 0f 0a 01 00 18 3c 66 00 18     ............<f..
    33b3:	3c 66 c3 c3 c3 ff c3 c3 c3 c3 08 0f 0f 0a 01 00     <f..............
    33c3:	32 7e 4c 00 18 3c 66 c3 c3 c3 ff c3 c3 c3 c3 08     2~L..<f.........
    33d3:	0f 0f 0a 01 00 66 66 00 18 3c 66 66 c3 c3 c3 ff     .....ff..<ff....
    33e3:	c3 c3 c3 c3 08 10 10 0a 01 00 3c 66 66 3c 00 18     ..........<ff<..
    33f3:	3c 66 c3 c3 c3 ff c3 c3 c3 c3 08 0d 0d 0a 01 00     <f..............
    3403:	1f 3c 6c 6c cc cc ff cc cc cc cc cc cf 08 11 11     .<ll............
    3413:	0a 01 fc 3c 66 c3 c0 c0 c0 c0 c0 c0 c0 c3 66 3c     ...<f.........f<
    3423:	18 0c 6c 38 08 0f 0f 0a 01 00 60 30 18 00 ff c0     ..l8......`0....
    3433:	c0 c0 c0 fc c0 c0 c0 c0 ff 08 0f 0f 0a 01 00 0c     ................
    3443:	18 30 00 ff c0 c0 c0 c0 fc c0 c0 c0 c0 ff 08 0f     .0..............
    3453:	0f 0a 01 00 18 3c 66 00 ff c0 c0 c0 c0 fc c0 c0     .....<f.........
    3463:	c0 c0 ff 08 0f 0f 0a 01 00 66 66 00 00 ff c0 c0     .........ff.....
    3473:	c0 c0 fc c0 c0 c0 c0 ff 06 0f 0f 0a 02 00 60 30     ..............`0
    3483:	18 00 fc 30 30 30 30 30 30 30 30 30 fc 06 0f 0f     ...000000000....
    3493:	0a 02 00 18 30 60 00 fc 30 30 30 30 30 30 30 30     ....0`..00000000
    34a3:	30 fc 06 0f 0f 0a 02 00 30 78 cc 00 fc 30 30 30     0.......0x...000
    34b3:	30 30 30 30 30 30 fc 06 0f 0f 0a 02 00 cc cc 00     000000..........
    34c3:	fc 30 30 30 30 30 30 30 30 30 30 fc 09 0d 1a 0a     .0000000000.....
    34d3:	00 00 7e 00 63 00 61 80 61 80 61 80 61 80 f9 80     ..~.c.a.a.a.a...
    34e3:	61 80 61 80 61 80 61 80 63 00 7e 00 08 0f 0f 0a     a.a.a.a.c.~.....
    34f3:	01 00 32 7e 4c 00 c3 e3 f3 f3 db db cf cf c7 c3     ..2~L...........
    3503:	c3 08 0f 0f 0a 01 00 30 18 0c 00 3c 66 c3 c3 c3     .......0...<f...
    3513:	c3 c3 c3 c3 66 3c 08 0f 0f 0a 01 00 0c 18 30 00     ....f<........0.
    3523:	3c 66 c3 c3 c3 c3 c3 c3 c3 66 3c 08 0f 0f 0a 01     <f.......f<.....
    3533:	00 18 3c 66 00 3c 66 c3 c3 c3 c3 c3 c3 c3 66 3c     ..<f.<f.......f<
    3543:	08 0f 0f 0a 01 00 32 7e 4c 00 3c 66 c3 c3 c3 c3     ......2~L.<f....
    3553:	c3 c3 c3 66 3c 08 0f 0f 0a 01 00 66 66 00 3c 66     ...f<......ff.<f
    3563:	c3 c3 c3 c3 c3 c3 c3 c3 66 3c 07 08 08 0a 01 00     ........f<......
    3573:	82 c6 6c 38 38 6c c6 82 08 0f 0f 0a 01 ff 01 3e     ..l88l.........>
    3583:	66 c7 c7 cb cb cb d3 d3 d3 e3 66 7c 80 08 0f 0f     f.........f|....
    3593:	0a 01 00 30 18 0c 00 c3 c3 c3 c3 c3 c3 c3 c3 c3     ...0............
    35a3:	66 3c 08 0f 0f 0a 01 00 0c 18 30 00 c3 c3 c3 c3     f<........0.....
    35b3:	c3 c3 c3 c3 c3 66 3c 08 0f 0f 0a 01 00 18 3c 66     .....f<.......<f
    35c3:	00 c3 c3 c3 c3 c3 c3 c3 c3 c3 66 3c 08 0f 0f 0a     ..........f<....
    35d3:	01 00 66 66 00 c3 c3 c3 c3 c3 c3 c3 c3 c3 c3 66     ..ff...........f
    35e3:	3c 08 0f 0f 0a 01 00 0c 18 30 00 c3 c3 66 66 3c     <........0...ff<
    35f3:	3c 18 18 18 18 18 07 0d 0d 0a 02 00 c0 c0 c0 fc     <...............
    3603:	c6 c6 c6 c6 c6 fc c0 c0 c0 08 0d 0d 0a 01 00 1c     ................
    3613:	36 63 63 66 ec 6c 66 63 63 63 66 6c 08 0c 0c 0a     6ccf.lfcccfl....
    3623:	01 00 30 18 0c 00 7e c3 03 7f c3 c3 c3 7d 08 0c     ..0...~......}..
    3633:	0c 0a 01 00 0c 18 30 00 7e c3 03 7f c3 c3 c3 7d     ......0.~......}
    3643:	08 0c 0c 0a 01 00 18 3c 66 00 7e c3 03 7f c3 c3     .......<f.~.....
    3653:	c3 7d 08 0c 0c 0a 01 00 32 7e 4c 00 7e c3 03 7f     .}......2~L.~...
    3663:	c3 c3 c3 7d 08 0b 0b 0a 01 00 66 66 00 7e c3 03     ...}......ff.~..
    3673:	7f c3 c3 c3 7d 08 0d 0d 0a 01 00 3c 66 66 3c 00     ....}......<ff<.
    3683:	7e c3 03 7f c3 c3 c3 7d 08 08 08 0a 01 00 76 9b     ~......}......v.
    3693:	1b 1e 78 d8 d9 6e 08 0c 0c 0a 01 fc 3e 63 c0 c0     ..x..n......>c..
    36a3:	c0 c0 63 3e 18 0c 6c 38 08 0c 0c 0a 01 00 60 30     ..c>..l8......`0
    36b3:	18 00 3c 66 c3 ff c0 c0 63 3e 08 0c 0c 0a 01 00     ..<f....c>......
    36c3:	06 0c 18 00 3c 66 c3 ff c0 c0 63 3e 08 0c 0c 0a     ....<f....c>....
    36d3:	01 00 18 3c 66 00 3c 66 c3 ff c0 c0 63 3e 08 0b     ...<f.<f....c>..
    36e3:	0b 0a 01 00 66 66 00 3c 66 c3 ff c0 c0 63 3e 08     ....ff.<f....c>.
    36f3:	0c 0c 0a 01 00 60 30 18 00 78 18 18 18 18 18 18     .....`0..x......
    3703:	ff 08 0c 0c 0a 01 00 0c 18 30 00 78 18 18 18 18     .........0.x....
    3713:	18 18 ff 08 0c 0c 0a 01 00 18 3c 66 00 78 18 18     ..........<f.x..
    3723:	18 18 18 18 ff 08 0b 0b 0a 01 00 66 66 00 78 18     ...........ff.x.
    3733:	18 18 18 18 18 ff 08 0d 0d 0a 01 00 88 d8 70 70     ..............pp
    3743:	d8 8c 3e 67 c3 c3 c3 66 3c 08 0c 0c 0a 01 00 32     ..>g...f<......2
    3753:	7e 4c 00 dc e6 c3 c3 c3 c3 c3 c3 08 0c 0c 0a 01     ~L..............
    3763:	00 60 30 18 00 3c 66 c3 c3 c3 c3 66 3c 08 0c 0c     .`0..<f....f<...
    3773:	0a 01 00 06 0c 18 00 3c 66 c3 c3 c3 c3 66 3c 08     .......<f....f<.
    3783:	0c 0c 0a 01 00 18 3c 66 00 3c 66 c3 c3 c3 c3 66     ......<f.<f....f
    3793:	3c 08 0c 0c 0a 01 00 32 7e 4c 00 3c 66 c3 c3 c3     <......2~L.<f...
    37a3:	c3 66 3c 08 0b 0b 0a 01 00 66 66 00 3c 66 c3 c3     .f<......ff.<f..
    37b3:	c3 c3 66 3c 08 0a 0a 0a 01 01 18 18 00 00 ff ff     ..f<............
    37c3:	00 00 18 18 08 0a 0a 0a 01 ff 01 3e 66 cb cb d3     ...........>f...
    37d3:	d3 66 7c 80 08 0c 0c 0a 01 00 30 18 0c 00 c3 c3     .f|.......0.....
    37e3:	c3 c3 c3 c3 67 3b 08 0c 0c 0a 01 00 06 0c 18 00     ....g;..........
    37f3:	c3 c3 c3 c3 c3 c3 67 3b 08 0c 0c 0a 01 00 18 3c     ......g;.......<
    3803:	66 00 c3 c3 c3 c3 c3 c3 67 3b 08 0b 0b 0a 01 00     f.......g;......
    3813:	66 66 00 c3 c3 c3 c3 c3 c3 67 3b 08 10 10 0a 01     ff.......g;.....
    3823:	fc 0c 18 30 00 c3 c3 c3 c3 c3 c3 67 3b 03 c3 66     ...0.......g;..f
    3833:	3c 07 11 11 0a 02 fc c0 c0 c0 c0 c0 c0 f8 cc c6     <...............
    3843:	c6 c6 cc f8 c0 c0 c0 c0 08 0f 0f 0a 01 fc 66 66     ..............ff
    3853:	00 c3 c3 c3 c3 c3 c3 67 3b 03 c3 66 3c              .......g;..f<

00003860 <__ctors_end>:
    3860:	11 24       	eor	r1, r1
    3862:	1f be       	out	0x3f, r1	; 63
    3864:	cf ef       	ldi	r28, 0xFF	; 255
    3866:	d8 e0       	ldi	r29, 0x08	; 8
    3868:	de bf       	out	0x3e, r29	; 62
    386a:	cd bf       	out	0x3d, r28	; 61

0000386c <__do_copy_data>:
    386c:	11 e0       	ldi	r17, 0x01	; 1
    386e:	a0 e0       	ldi	r26, 0x00	; 0
    3870:	b1 e0       	ldi	r27, 0x01	; 1
    3872:	ec ef       	ldi	r30, 0xFC	; 252
    3874:	f7 e6       	ldi	r31, 0x67	; 103
    3876:	02 c0       	rjmp	.+4      	; 0x387c <__do_copy_data+0x10>
    3878:	05 90       	lpm	r0, Z+
    387a:	0d 92       	st	X+, r0
    387c:	a0 3f       	cpi	r26, 0xF0	; 240
    387e:	b1 07       	cpc	r27, r17
    3880:	d9 f7       	brne	.-10     	; 0x3878 <__do_copy_data+0xc>

00003882 <__do_clear_bss>:
    3882:	13 e0       	ldi	r17, 0x03	; 3
    3884:	a0 ef       	ldi	r26, 0xF0	; 240
    3886:	b1 e0       	ldi	r27, 0x01	; 1
    3888:	01 c0       	rjmp	.+2      	; 0x388c <.do_clear_bss_start>

0000388a <.do_clear_bss_loop>:
    388a:	1d 92       	st	X+, r1

0000388c <.do_clear_bss_start>:
    388c:	a0 3d       	cpi	r26, 0xD0	; 208
    388e:	b1 07       	cpc	r27, r17
    3890:	e1 f7       	brne	.-8      	; 0x388a <.do_clear_bss_loop>
    3892:	0e 94 46 24 	call	0x488c	; 0x488c <main>
    3896:	0c 94 fc 33 	jmp	0x67f8	; 0x67f8 <_exit>

0000389a <__bad_interrupt>:
    389a:	0c 94 00 00 	jmp	0	; 0x0 <__vectors>

0000389e <timerInit>:
    389e:	10 92 9b 02 	sts	0x029B, r1
    38a2:	e1 e8       	ldi	r30, 0x81	; 129
    38a4:	f0 e0       	ldi	r31, 0x00	; 0
    38a6:	80 81       	ld	r24, Z
    38a8:	8b 60       	ori	r24, 0x0B	; 11
    38aa:	80 83       	st	Z, r24
    38ac:	10 92 85 00 	sts	0x0085, r1
    38b0:	10 92 84 00 	sts	0x0084, r1
    38b4:	87 ea       	ldi	r24, 0xA7	; 167
    38b6:	91 e6       	ldi	r25, 0x61	; 97
    38b8:	90 93 89 00 	sts	0x0089, r25
    38bc:	80 93 88 00 	sts	0x0088, r24
    38c0:	ef e6       	ldi	r30, 0x6F	; 111
    38c2:	f0 e0       	ldi	r31, 0x00	; 0
    38c4:	80 81       	ld	r24, Z
    38c6:	82 60       	ori	r24, 0x02	; 2
    38c8:	80 83       	st	Z, r24
    38ca:	08 95       	ret

000038cc <__vector_11>:
    38cc:	1f 92       	push	r1
    38ce:	0f 92       	push	r0
    38d0:	0f b6       	in	r0, 0x3f	; 63
    38d2:	0f 92       	push	r0
    38d4:	11 24       	eor	r1, r1
    38d6:	8f 93       	push	r24
    38d8:	9f 93       	push	r25
    38da:	af 93       	push	r26
    38dc:	bf 93       	push	r27
    38de:	ef 93       	push	r30
    38e0:	ff 93       	push	r31
    38e2:	80 91 9b 02 	lds	r24, 0x029B
    38e6:	8f 3f       	cpi	r24, 0xFF	; 255
    38e8:	11 f4       	brne	.+4      	; 0x38ee <__vector_11+0x22>
    38ea:	10 92 9b 02 	sts	0x029B, r1
    38ee:	a3 ea       	ldi	r26, 0xA3	; 163
    38f0:	b2 e0       	ldi	r27, 0x02	; 2
    38f2:	ef e9       	ldi	r30, 0x9F	; 159
    38f4:	f2 e0       	ldi	r31, 0x02	; 2
    38f6:	8c 91       	ld	r24, X
    38f8:	81 11       	cpse	r24, r1
    38fa:	07 c0       	rjmp	.+14     	; 0x390a <__vector_11+0x3e>
    38fc:	80 81       	ld	r24, Z
    38fe:	91 81       	ldd	r25, Z+1	; 0x01
    3900:	00 97       	sbiw	r24, 0x00	; 0
    3902:	19 f0       	breq	.+6      	; 0x390a <__vector_11+0x3e>
    3904:	01 97       	sbiw	r24, 0x01	; 1
    3906:	91 83       	std	Z+1, r25	; 0x01
    3908:	80 83       	st	Z, r24
    390a:	18 96       	adiw	r26, 0x08	; 8
    390c:	38 96       	adiw	r30, 0x08	; 8
    390e:	82 e0       	ldi	r24, 0x02	; 2
    3910:	ef 3e       	cpi	r30, 0xEF	; 239
    3912:	f8 07       	cpc	r31, r24
    3914:	81 f7       	brne	.-32     	; 0x38f6 <__vector_11+0x2a>
    3916:	ff 91       	pop	r31
    3918:	ef 91       	pop	r30
    391a:	bf 91       	pop	r27
    391c:	af 91       	pop	r26
    391e:	9f 91       	pop	r25
    3920:	8f 91       	pop	r24
    3922:	0f 90       	pop	r0
    3924:	0f be       	out	0x3f, r0	; 63
    3926:	0f 90       	pop	r0
    3928:	1f 90       	pop	r1
    392a:	18 95       	reti

0000392c <initScheduler>:
    392c:	ec e9       	ldi	r30, 0x9C	; 156
    392e:	f2 e0       	ldi	r31, 0x02	; 2
    3930:	a3 ea       	ldi	r26, 0xA3	; 163
    3932:	b2 e0       	ldi	r27, 0x02	; 2
    3934:	82 e0       	ldi	r24, 0x02	; 2
    3936:	10 82       	st	Z, r1
    3938:	12 82       	std	Z+2, r1	; 0x02
    393a:	11 82       	std	Z+1, r1	; 0x01
    393c:	14 82       	std	Z+4, r1	; 0x04
    393e:	13 82       	std	Z+3, r1	; 0x03
    3940:	16 82       	std	Z+6, r1	; 0x06
    3942:	15 82       	std	Z+5, r1	; 0x05
    3944:	8c 93       	st	X, r24
    3946:	38 96       	adiw	r30, 0x08	; 8
    3948:	18 96       	adiw	r26, 0x08	; 8
    394a:	92 e0       	ldi	r25, 0x02	; 2
    394c:	ec 3e       	cpi	r30, 0xEC	; 236
    394e:	f9 07       	cpc	r31, r25
    3950:	91 f7       	brne	.-28     	; 0x3936 <initScheduler+0xa>
    3952:	08 95       	ret

00003954 <addTask>:
    3954:	a3 ea       	ldi	r26, 0xA3	; 163
    3956:	b2 e0       	ldi	r27, 0x02	; 2
    3958:	e0 e0       	ldi	r30, 0x00	; 0
    395a:	f0 e0       	ldi	r31, 0x00	; 0
    395c:	9c 91       	ld	r25, X
    395e:	92 30       	cpi	r25, 0x02	; 2
    3960:	81 f4       	brne	.+32     	; 0x3982 <addTask+0x2e>
    3962:	93 e0       	ldi	r25, 0x03	; 3
    3964:	ee 0f       	add	r30, r30
    3966:	ff 1f       	adc	r31, r31
    3968:	9a 95       	dec	r25
    396a:	e1 f7       	brne	.-8      	; 0x3964 <addTask+0x10>
    396c:	e4 56       	subi	r30, 0x64	; 100
    396e:	fd 4f       	sbci	r31, 0xFD	; 253
    3970:	80 83       	st	Z, r24
    3972:	72 83       	std	Z+2, r23	; 0x02
    3974:	61 83       	std	Z+1, r22	; 0x01
    3976:	54 83       	std	Z+4, r21	; 0x04
    3978:	43 83       	std	Z+3, r20	; 0x03
    397a:	56 83       	std	Z+6, r21	; 0x06
    397c:	45 83       	std	Z+5, r20	; 0x05
    397e:	17 82       	std	Z+7, r1	; 0x07
    3980:	08 95       	ret
    3982:	31 96       	adiw	r30, 0x01	; 1
    3984:	18 96       	adiw	r26, 0x08	; 8
    3986:	ea 30       	cpi	r30, 0x0A	; 10
    3988:	f1 05       	cpc	r31, r1
    398a:	41 f7       	brne	.-48     	; 0x395c <addTask+0x8>
    398c:	08 95       	ret

0000398e <dispatchTasks>:
    398e:	ff 92       	push	r15
    3990:	0f 93       	push	r16
    3992:	1f 93       	push	r17
    3994:	cf 93       	push	r28
    3996:	df 93       	push	r29
    3998:	c3 ea       	ldi	r28, 0xA3	; 163
    399a:	d2 e0       	ldi	r29, 0x02	; 2
    399c:	0d e9       	ldi	r16, 0x9D	; 157
    399e:	12 e0       	ldi	r17, 0x02	; 2
    39a0:	ff 24       	eor	r15, r15
    39a2:	f3 94       	inc	r15
    39a4:	d8 01       	movw	r26, r16
    39a6:	12 96       	adiw	r26, 0x02	; 2
    39a8:	8d 91       	ld	r24, X+
    39aa:	9c 91       	ld	r25, X
    39ac:	13 97       	sbiw	r26, 0x03	; 3
    39ae:	89 2b       	or	r24, r25
    39b0:	69 f4       	brne	.+26     	; 0x39cc <dispatchTasks+0x3e>
    39b2:	88 81       	ld	r24, Y
    39b4:	81 11       	cpse	r24, r1
    39b6:	0a c0       	rjmp	.+20     	; 0x39cc <dispatchTasks+0x3e>
    39b8:	f8 82       	st	Y, r15
    39ba:	ed 91       	ld	r30, X+
    39bc:	fc 91       	ld	r31, X
    39be:	09 95       	icall
    39c0:	f8 01       	movw	r30, r16
    39c2:	84 81       	ldd	r24, Z+4	; 0x04
    39c4:	95 81       	ldd	r25, Z+5	; 0x05
    39c6:	93 83       	std	Z+3, r25	; 0x03
    39c8:	82 83       	std	Z+2, r24	; 0x02
    39ca:	18 82       	st	Y, r1
    39cc:	28 96       	adiw	r28, 0x08	; 8
    39ce:	08 5f       	subi	r16, 0xF8	; 248
    39d0:	1f 4f       	sbci	r17, 0xFF	; 255
    39d2:	f2 e0       	ldi	r31, 0x02	; 2
    39d4:	c3 3f       	cpi	r28, 0xF3	; 243
    39d6:	df 07       	cpc	r29, r31
    39d8:	29 f7       	brne	.-54     	; 0x39a4 <dispatchTasks+0x16>
    39da:	df 91       	pop	r29
    39dc:	cf 91       	pop	r28
    39de:	1f 91       	pop	r17
    39e0:	0f 91       	pop	r16
    39e2:	ff 90       	pop	r15
    39e4:	08 95       	ret

000039e6 <i2c_start>:
    39e6:	10 92 bc 00 	sts	0x00BC, r1
    39ea:	94 ea       	ldi	r25, 0xA4	; 164
    39ec:	90 93 bc 00 	sts	0x00BC, r25
    39f0:	90 91 bc 00 	lds	r25, 0x00BC
    39f4:	97 ff       	sbrs	r25, 7
    39f6:	fc cf       	rjmp	.-8      	; 0x39f0 <i2c_start+0xa>
    39f8:	90 91 b9 00 	lds	r25, 0x00B9
    39fc:	98 7f       	andi	r25, 0xF8	; 248
    39fe:	98 30       	cpi	r25, 0x08	; 8
    3a00:	99 f4       	brne	.+38     	; 0x3a28 <i2c_start+0x42>
    3a02:	80 93 bb 00 	sts	0x00BB, r24
    3a06:	84 e8       	ldi	r24, 0x84	; 132
    3a08:	80 93 bc 00 	sts	0x00BC, r24
    3a0c:	80 91 bc 00 	lds	r24, 0x00BC
    3a10:	87 ff       	sbrs	r24, 7
    3a12:	fc cf       	rjmp	.-8      	; 0x3a0c <i2c_start+0x26>
    3a14:	90 91 b9 00 	lds	r25, 0x00B9
    3a18:	98 7f       	andi	r25, 0xF8	; 248
    3a1a:	98 31       	cpi	r25, 0x18	; 24
    3a1c:	19 f0       	breq	.+6      	; 0x3a24 <i2c_start+0x3e>
    3a1e:	81 e0       	ldi	r24, 0x01	; 1
    3a20:	90 34       	cpi	r25, 0x40	; 64
    3a22:	19 f4       	brne	.+6      	; 0x3a2a <i2c_start+0x44>
    3a24:	80 e0       	ldi	r24, 0x00	; 0
    3a26:	08 95       	ret
    3a28:	81 e0       	ldi	r24, 0x01	; 1
    3a2a:	08 95       	ret

00003a2c <i2c_write>:
    3a2c:	80 93 bb 00 	sts	0x00BB, r24
    3a30:	84 e8       	ldi	r24, 0x84	; 132
    3a32:	80 93 bc 00 	sts	0x00BC, r24
    3a36:	80 91 bc 00 	lds	r24, 0x00BC
    3a3a:	87 ff       	sbrs	r24, 7
    3a3c:	fc cf       	rjmp	.-8      	; 0x3a36 <i2c_write+0xa>
    3a3e:	90 91 b9 00 	lds	r25, 0x00B9
    3a42:	98 7f       	andi	r25, 0xF8	; 248
    3a44:	81 e0       	ldi	r24, 0x01	; 1
    3a46:	98 32       	cpi	r25, 0x28	; 40
    3a48:	09 f4       	brne	.+2      	; 0x3a4c <i2c_write+0x20>
    3a4a:	80 e0       	ldi	r24, 0x00	; 0
    3a4c:	08 95       	ret

00003a4e <i2c_read_ack>:
    3a4e:	84 ec       	ldi	r24, 0xC4	; 196
    3a50:	80 93 bc 00 	sts	0x00BC, r24
    3a54:	80 91 bc 00 	lds	r24, 0x00BC
    3a58:	87 ff       	sbrs	r24, 7
    3a5a:	fc cf       	rjmp	.-8      	; 0x3a54 <i2c_read_ack+0x6>
    3a5c:	80 91 bb 00 	lds	r24, 0x00BB
    3a60:	08 95       	ret

00003a62 <i2c_read_nack>:
    3a62:	84 e8       	ldi	r24, 0x84	; 132
    3a64:	80 93 bc 00 	sts	0x00BC, r24
    3a68:	80 91 bc 00 	lds	r24, 0x00BC
    3a6c:	87 ff       	sbrs	r24, 7
    3a6e:	fc cf       	rjmp	.-8      	; 0x3a68 <i2c_read_nack+0x6>
    3a70:	80 91 bb 00 	lds	r24, 0x00BB
    3a74:	08 95       	ret

00003a76 <i2c_writeReg>:
    3a76:	cf 92       	push	r12
    3a78:	df 92       	push	r13
    3a7a:	ef 92       	push	r14
    3a7c:	ff 92       	push	r15
    3a7e:	0f 93       	push	r16
    3a80:	1f 93       	push	r17
    3a82:	cf 93       	push	r28
    3a84:	df 93       	push	r29
    3a86:	1f 92       	push	r1
    3a88:	cd b7       	in	r28, 0x3d	; 61
    3a8a:	de b7       	in	r29, 0x3e	; 62
    3a8c:	7a 01       	movw	r14, r20
    3a8e:	89 01       	movw	r16, r18
    3a90:	69 83       	std	Y+1, r22	; 0x01
    3a92:	0e 94 f3 1c 	call	0x39e6	; 0x39e6 <i2c_start>
    3a96:	69 81       	ldd	r22, Y+1	; 0x01
    3a98:	88 23       	and	r24, r24
    3a9a:	11 f0       	breq	.+4      	; 0x3aa0 <i2c_writeReg+0x2a>
    3a9c:	81 e0       	ldi	r24, 0x01	; 1
    3a9e:	15 c0       	rjmp	.+42     	; 0x3aca <i2c_writeReg+0x54>
    3aa0:	86 2f       	mov	r24, r22
    3aa2:	0e 94 16 1d 	call	0x3a2c	; 0x3a2c <i2c_write>
    3aa6:	67 01       	movw	r12, r14
    3aa8:	0e 0d       	add	r16, r14
    3aaa:	1f 1d       	adc	r17, r15
    3aac:	c0 16       	cp	r12, r16
    3aae:	d1 06       	cpc	r13, r17
    3ab0:	41 f0       	breq	.+16     	; 0x3ac2 <i2c_writeReg+0x4c>
    3ab2:	f6 01       	movw	r30, r12
    3ab4:	81 91       	ld	r24, Z+
    3ab6:	6f 01       	movw	r12, r30
    3ab8:	0e 94 16 1d 	call	0x3a2c	; 0x3a2c <i2c_write>
    3abc:	88 23       	and	r24, r24
    3abe:	b1 f3       	breq	.-20     	; 0x3aac <i2c_writeReg+0x36>
    3ac0:	ed cf       	rjmp	.-38     	; 0x3a9c <i2c_writeReg+0x26>
    3ac2:	84 e9       	ldi	r24, 0x94	; 148
    3ac4:	80 93 bc 00 	sts	0x00BC, r24
    3ac8:	80 e0       	ldi	r24, 0x00	; 0
    3aca:	0f 90       	pop	r0
    3acc:	df 91       	pop	r29
    3ace:	cf 91       	pop	r28
    3ad0:	1f 91       	pop	r17
    3ad2:	0f 91       	pop	r16
    3ad4:	ff 90       	pop	r15
    3ad6:	ef 90       	pop	r14
    3ad8:	df 90       	pop	r13
    3ada:	cf 90       	pop	r12
    3adc:	08 95       	ret

00003ade <i2c_readReg>:
    3ade:	cf 92       	push	r12
    3ae0:	df 92       	push	r13
    3ae2:	ef 92       	push	r14
    3ae4:	ff 92       	push	r15
    3ae6:	0f 93       	push	r16
    3ae8:	1f 93       	push	r17
    3aea:	cf 93       	push	r28
    3aec:	df 93       	push	r29
    3aee:	1f 92       	push	r1
    3af0:	cd b7       	in	r28, 0x3d	; 61
    3af2:	de b7       	in	r29, 0x3e	; 62
    3af4:	18 2f       	mov	r17, r24
    3af6:	6a 01       	movw	r12, r20
    3af8:	79 01       	movw	r14, r18
    3afa:	69 83       	std	Y+1, r22	; 0x01
    3afc:	0e 94 f3 1c 	call	0x39e6	; 0x39e6 <i2c_start>
    3b00:	69 81       	ldd	r22, Y+1	; 0x01
    3b02:	88 23       	and	r24, r24
    3b04:	11 f0       	breq	.+4      	; 0x3b0a <i2c_readReg+0x2c>
    3b06:	81 e0       	ldi	r24, 0x01	; 1
    3b08:	23 c0       	rjmp	.+70     	; 0x3b50 <i2c_readReg+0x72>
    3b0a:	86 2f       	mov	r24, r22
    3b0c:	0e 94 16 1d 	call	0x3a2c	; 0x3a2c <i2c_write>
    3b10:	81 2f       	mov	r24, r17
    3b12:	81 60       	ori	r24, 0x01	; 1
    3b14:	0e 94 f3 1c 	call	0x39e6	; 0x39e6 <i2c_start>
    3b18:	81 11       	cpse	r24, r1
    3b1a:	f5 cf       	rjmp	.-22     	; 0x3b06 <i2c_readReg+0x28>
    3b1c:	86 01       	movw	r16, r12
    3b1e:	81 e0       	ldi	r24, 0x01	; 1
    3b20:	e8 1a       	sub	r14, r24
    3b22:	f1 08       	sbc	r15, r1
    3b24:	c8 01       	movw	r24, r16
    3b26:	8c 19       	sub	r24, r12
    3b28:	9d 09       	sbc	r25, r13
    3b2a:	8e 15       	cp	r24, r14
    3b2c:	9f 05       	cpc	r25, r15
    3b2e:	30 f4       	brcc	.+12     	; 0x3b3c <i2c_readReg+0x5e>
    3b30:	0e 94 27 1d 	call	0x3a4e	; 0x3a4e <i2c_read_ack>
    3b34:	f8 01       	movw	r30, r16
    3b36:	81 93       	st	Z+, r24
    3b38:	8f 01       	movw	r16, r30
    3b3a:	f4 cf       	rjmp	.-24     	; 0x3b24 <i2c_readReg+0x46>
    3b3c:	ec 0c       	add	r14, r12
    3b3e:	fd 1c       	adc	r15, r13
    3b40:	0e 94 31 1d 	call	0x3a62	; 0x3a62 <i2c_read_nack>
    3b44:	f7 01       	movw	r30, r14
    3b46:	80 83       	st	Z, r24
    3b48:	84 e9       	ldi	r24, 0x94	; 148
    3b4a:	80 93 bc 00 	sts	0x00BC, r24
    3b4e:	80 e0       	ldi	r24, 0x00	; 0
    3b50:	0f 90       	pop	r0
    3b52:	df 91       	pop	r29
    3b54:	cf 91       	pop	r28
    3b56:	1f 91       	pop	r17
    3b58:	0f 91       	pop	r16
    3b5a:	ff 90       	pop	r15
    3b5c:	ef 90       	pop	r14
    3b5e:	df 90       	pop	r13
    3b60:	cf 90       	pop	r12
    3b62:	08 95       	ret

00003b64 <LoadCALvars>:
    3b64:	49 e1       	ldi	r20, 0x19	; 25
    3b66:	50 e0       	ldi	r21, 0x00	; 0
    3b68:	60 e0       	ldi	r22, 0x00	; 0
    3b6a:	70 e0       	ldi	r23, 0x00	; 0
    3b6c:	8c ee       	ldi	r24, 0xEC	; 236
    3b6e:	92 e0       	ldi	r25, 0x02	; 2
    3b70:	0c 94 0f 33 	jmp	0x661e	; 0x661e <__eerd_block_m328>

00003b74 <_draw>:
    3b74:	cf 93       	push	r28
    3b76:	c8 2f       	mov	r28, r24
    3b78:	69 e9       	ldi	r22, 0x99	; 153
    3b7a:	73 e2       	ldi	r23, 0x23	; 35
    3b7c:	85 e0       	ldi	r24, 0x05	; 5
    3b7e:	93 e0       	ldi	r25, 0x03	; 3
    3b80:	0e 94 ac 2a 	call	0x5558	; 0x5558 <u8g_SetFont>
    3b84:	c1 11       	cpse	r28, r1
    3b86:	0b c0       	rjmp	.+22     	; 0x3b9e <_draw+0x2a>
    3b88:	20 91 f4 01 	lds	r18, 0x01F4
    3b8c:	82 2f       	mov	r24, r18
    3b8e:	99 27       	eor	r25, r25
    3b90:	87 fd       	sbrc	r24, 7
    3b92:	90 95       	com	r25
    3b94:	9f 93       	push	r25
    3b96:	2f 93       	push	r18
    3b98:	87 e8       	ldi	r24, 0x87	; 135
    3b9a:	90 e0       	ldi	r25, 0x00	; 0
    3b9c:	23 c0       	rjmp	.+70     	; 0x3be4 <_draw+0x70>
    3b9e:	c1 30       	cpi	r28, 0x01	; 1
    3ba0:	59 f4       	brne	.+22     	; 0x3bb8 <_draw+0x44>
    3ba2:	20 91 f3 01 	lds	r18, 0x01F3
    3ba6:	82 2f       	mov	r24, r18
    3ba8:	99 27       	eor	r25, r25
    3baa:	87 fd       	sbrc	r24, 7
    3bac:	90 95       	com	r25
    3bae:	9f 93       	push	r25
    3bb0:	2f 93       	push	r18
    3bb2:	85 e7       	ldi	r24, 0x75	; 117
    3bb4:	90 e0       	ldi	r25, 0x00	; 0
    3bb6:	16 c0       	rjmp	.+44     	; 0x3be4 <_draw+0x70>
    3bb8:	c2 30       	cpi	r28, 0x02	; 2
    3bba:	19 f5       	brne	.+70     	; 0x3c02 <_draw+0x8e>
    3bbc:	80 91 f2 01 	lds	r24, 0x01F2
    3bc0:	81 50       	subi	r24, 0x01	; 1
    3bc2:	87 30       	cpi	r24, 0x07	; 7
    3bc4:	18 f0       	brcs	.+6      	; 0x3bcc <_draw+0x58>
    3bc6:	81 e0       	ldi	r24, 0x01	; 1
    3bc8:	80 93 f2 01 	sts	0x01F2, r24
    3bcc:	e0 91 f2 01 	lds	r30, 0x01F2
    3bd0:	ee 0f       	add	r30, r30
    3bd2:	ff 0b       	sbc	r31, r31
    3bd4:	e3 52       	subi	r30, 0x23	; 35
    3bd6:	fe 4f       	sbci	r31, 0xFE	; 254
    3bd8:	81 81       	ldd	r24, Z+1	; 0x01
    3bda:	8f 93       	push	r24
    3bdc:	80 81       	ld	r24, Z
    3bde:	8f 93       	push	r24
    3be0:	88 e6       	ldi	r24, 0x68	; 104
    3be2:	90 e0       	ldi	r25, 0x00	; 0
    3be4:	9f 93       	push	r25
    3be6:	8f 93       	push	r24
    3be8:	80 e8       	ldi	r24, 0x80	; 128
    3bea:	93 e0       	ldi	r25, 0x03	; 3
    3bec:	9f 93       	push	r25
    3bee:	8f 93       	push	r24
    3bf0:	0e 94 1b 31 	call	0x6236	; 0x6236 <sprintf_P>
    3bf4:	0f 90       	pop	r0
    3bf6:	0f 90       	pop	r0
    3bf8:	0f 90       	pop	r0
    3bfa:	0f 90       	pop	r0
    3bfc:	0f 90       	pop	r0
    3bfe:	0f 90       	pop	r0
    3c00:	4b c0       	rjmp	.+150    	; 0x3c98 <_draw+0x124>
    3c02:	c3 30       	cpi	r28, 0x03	; 3
    3c04:	09 f0       	breq	.+2      	; 0x3c08 <_draw+0x94>
    3c06:	48 c0       	rjmp	.+144    	; 0x3c98 <_draw+0x124>
    3c08:	80 91 f1 01 	lds	r24, 0x01F1
    3c0c:	81 50       	subi	r24, 0x01	; 1
    3c0e:	8c 30       	cpi	r24, 0x0C	; 12
    3c10:	18 f0       	brcs	.+6      	; 0x3c18 <_draw+0xa4>
    3c12:	81 e0       	ldi	r24, 0x01	; 1
    3c14:	80 93 f1 01 	sts	0x01F1, r24
    3c18:	80 91 f0 01 	lds	r24, 0x01F0
    3c1c:	81 11       	cpse	r24, r1
    3c1e:	03 c0       	rjmp	.+6      	; 0x3c26 <_draw+0xb2>
    3c20:	81 e0       	ldi	r24, 0x01	; 1
    3c22:	80 93 f0 01 	sts	0x01F0, r24
    3c26:	21 e1       	ldi	r18, 0x11	; 17
    3c28:	31 e0       	ldi	r19, 0x01	; 1
    3c2a:	4a e0       	ldi	r20, 0x0A	; 10
    3c2c:	60 e0       	ldi	r22, 0x00	; 0
    3c2e:	85 e0       	ldi	r24, 0x05	; 5
    3c30:	93 e0       	ldi	r25, 0x03	; 3
    3c32:	0e 94 27 2a 	call	0x544e	; 0x544e <u8g_DrawStr>
    3c36:	2a e1       	ldi	r18, 0x1A	; 26
    3c38:	31 e0       	ldi	r19, 0x01	; 1
    3c3a:	44 e1       	ldi	r20, 0x14	; 20
    3c3c:	60 e0       	ldi	r22, 0x00	; 0
    3c3e:	85 e0       	ldi	r24, 0x05	; 5
    3c40:	93 e0       	ldi	r25, 0x03	; 3
    3c42:	0e 94 27 2a 	call	0x544e	; 0x544e <u8g_DrawStr>
    3c46:	80 91 01 01 	lds	r24, 0x0101
    3c4a:	8f 93       	push	r24
    3c4c:	80 91 00 01 	lds	r24, 0x0100
    3c50:	8f 93       	push	r24
    3c52:	e0 91 f1 01 	lds	r30, 0x01F1
    3c56:	f0 e0       	ldi	r31, 0x00	; 0
    3c58:	ee 0f       	add	r30, r30
    3c5a:	ff 1f       	adc	r31, r31
    3c5c:	eb 53       	subi	r30, 0x3B	; 59
    3c5e:	fe 4f       	sbci	r31, 0xFE	; 254
    3c60:	81 81       	ldd	r24, Z+1	; 0x01
    3c62:	8f 93       	push	r24
    3c64:	80 81       	ld	r24, Z
    3c66:	8f 93       	push	r24
    3c68:	80 91 f0 01 	lds	r24, 0x01F0
    3c6c:	1f 92       	push	r1
    3c6e:	8f 93       	push	r24
    3c70:	8c e2       	ldi	r24, 0x2C	; 44
    3c72:	91 e0       	ldi	r25, 0x01	; 1
    3c74:	9f 93       	push	r25
    3c76:	8f 93       	push	r24
    3c78:	80 e8       	ldi	r24, 0x80	; 128
    3c7a:	93 e0       	ldi	r25, 0x03	; 3
    3c7c:	9f 93       	push	r25
    3c7e:	8f 93       	push	r24
    3c80:	0e 94 f9 30 	call	0x61f2	; 0x61f2 <sprintf>
    3c84:	8d b7       	in	r24, 0x3d	; 61
    3c86:	9e b7       	in	r25, 0x3e	; 62
    3c88:	0a 96       	adiw	r24, 0x0a	; 10
    3c8a:	0f b6       	in	r0, 0x3f	; 63
    3c8c:	f8 94       	cli
    3c8e:	9e bf       	out	0x3e, r25	; 62
    3c90:	0f be       	out	0x3f, r0	; 63
    3c92:	8d bf       	out	0x3d, r24	; 61
    3c94:	4e e1       	ldi	r20, 0x1E	; 30
    3c96:	01 c0       	rjmp	.+2      	; 0x3c9a <_draw+0x126>
    3c98:	4a e0       	ldi	r20, 0x0A	; 10
    3c9a:	20 e8       	ldi	r18, 0x80	; 128
    3c9c:	33 e0       	ldi	r19, 0x03	; 3
    3c9e:	60 e0       	ldi	r22, 0x00	; 0
    3ca0:	85 e0       	ldi	r24, 0x05	; 5
    3ca2:	93 e0       	ldi	r25, 0x03	; 3
    3ca4:	cf 91       	pop	r28
    3ca6:	0c 94 27 2a 	jmp	0x544e	; 0x544e <u8g_DrawStr>

00003caa <Read_RTC>:
    3caa:	68 2f       	mov	r22, r24
    3cac:	70 e0       	ldi	r23, 0x00	; 0
    3cae:	21 e0       	ldi	r18, 0x01	; 1
    3cb0:	30 e0       	ldi	r19, 0x00	; 0
    3cb2:	4c e3       	ldi	r20, 0x3C	; 60
    3cb4:	53 e0       	ldi	r21, 0x03	; 3
    3cb6:	80 ed       	ldi	r24, 0xD0	; 208
    3cb8:	90 e0       	ldi	r25, 0x00	; 0
    3cba:	0e 94 6f 1d 	call	0x3ade	; 0x3ade <i2c_readReg>
    3cbe:	80 91 3c 03 	lds	r24, 0x033C
    3cc2:	08 95       	ret

00003cc4 <bcd2dec>:
    3cc4:	98 2f       	mov	r25, r24
    3cc6:	92 95       	swap	r25
    3cc8:	9f 70       	andi	r25, 0x0F	; 15
    3cca:	8f 70       	andi	r24, 0x0F	; 15
    3ccc:	2a e0       	ldi	r18, 0x0A	; 10
    3cce:	92 9f       	mul	r25, r18
    3cd0:	80 0d       	add	r24, r0
    3cd2:	11 24       	eor	r1, r1
    3cd4:	08 95       	ret

00003cd6 <GetHH>:
    3cd6:	82 e0       	ldi	r24, 0x02	; 2
    3cd8:	0e 94 55 1e 	call	0x3caa	; 0x3caa <Read_RTC>
    3cdc:	86 ff       	sbrs	r24, 6
    3cde:	02 c0       	rjmp	.+4      	; 0x3ce4 <GetHH+0xe>
    3ce0:	8f 71       	andi	r24, 0x1F	; 31
    3ce2:	01 c0       	rjmp	.+2      	; 0x3ce6 <GetHH+0x10>
    3ce4:	8f 73       	andi	r24, 0x3F	; 63
    3ce6:	0e 94 62 1e 	call	0x3cc4	; 0x3cc4 <bcd2dec>
    3cea:	90 e0       	ldi	r25, 0x00	; 0
    3cec:	08 95       	ret

00003cee <GetMM>:
    3cee:	81 e0       	ldi	r24, 0x01	; 1
    3cf0:	0e 94 55 1e 	call	0x3caa	; 0x3caa <Read_RTC>
    3cf4:	8f 77       	andi	r24, 0x7F	; 127
    3cf6:	0e 94 62 1e 	call	0x3cc4	; 0x3cc4 <bcd2dec>
    3cfa:	90 e0       	ldi	r25, 0x00	; 0
    3cfc:	08 95       	ret

00003cfe <GetDD>:
    3cfe:	84 e0       	ldi	r24, 0x04	; 4
    3d00:	0e 94 55 1e 	call	0x3caa	; 0x3caa <Read_RTC>
    3d04:	0e 94 62 1e 	call	0x3cc4	; 0x3cc4 <bcd2dec>
    3d08:	90 e0       	ldi	r25, 0x00	; 0
    3d0a:	08 95       	ret

00003d0c <GetDoW>:
    3d0c:	83 e0       	ldi	r24, 0x03	; 3
    3d0e:	0e 94 55 1e 	call	0x3caa	; 0x3caa <Read_RTC>
    3d12:	0e 94 62 1e 	call	0x3cc4	; 0x3cc4 <bcd2dec>
    3d16:	90 e0       	ldi	r25, 0x00	; 0
    3d18:	08 95       	ret

00003d1a <GetMonth>:
    3d1a:	85 e0       	ldi	r24, 0x05	; 5
    3d1c:	0e 94 55 1e 	call	0x3caa	; 0x3caa <Read_RTC>
    3d20:	0e 94 62 1e 	call	0x3cc4	; 0x3cc4 <bcd2dec>
    3d24:	90 e0       	ldi	r25, 0x00	; 0
    3d26:	08 95       	ret

00003d28 <GetYY>:
    3d28:	86 e0       	ldi	r24, 0x06	; 6
    3d2a:	0e 94 55 1e 	call	0x3caa	; 0x3caa <Read_RTC>
    3d2e:	0e 94 62 1e 	call	0x3cc4	; 0x3cc4 <bcd2dec>
    3d32:	90 e0       	ldi	r25, 0x00	; 0
    3d34:	08 95       	ret

00003d36 <dec2bcd>:
    3d36:	6a e0       	ldi	r22, 0x0A	; 10
    3d38:	0e 94 ff 2e 	call	0x5dfe	; 0x5dfe <__udivmodqi4>
    3d3c:	20 e1       	ldi	r18, 0x10	; 16
    3d3e:	82 9f       	mul	r24, r18
    3d40:	90 0d       	add	r25, r0
    3d42:	11 24       	eor	r1, r1
    3d44:	89 2f       	mov	r24, r25
    3d46:	08 95       	ret

00003d48 <setTimeLoop>:
    3d48:	ff 92       	push	r15
    3d4a:	0f 93       	push	r16
    3d4c:	1f 93       	push	r17
    3d4e:	cf 93       	push	r28
    3d50:	df 93       	push	r29
    3d52:	00 d0       	rcall	.+0      	; 0x3d54 <setTimeLoop+0xc>
    3d54:	00 d0       	rcall	.+0      	; 0x3d56 <setTimeLoop+0xe>
    3d56:	00 d0       	rcall	.+0      	; 0x3d58 <setTimeLoop+0x10>
    3d58:	cd b7       	in	r28, 0x3d	; 61
    3d5a:	de b7       	in	r29, 0x3e	; 62
    3d5c:	f0 90 81 00 	lds	r15, 0x0081
    3d60:	10 92 81 00 	sts	0x0081, r1
    3d64:	0e 94 6b 1e 	call	0x3cd6	; 0x3cd6 <GetHH>
    3d68:	80 93 f4 01 	sts	0x01F4, r24
    3d6c:	0e 94 77 1e 	call	0x3cee	; 0x3cee <GetMM>
    3d70:	80 93 f3 01 	sts	0x01F3, r24
    3d74:	0e 94 86 1e 	call	0x3d0c	; 0x3d0c <GetDoW>
    3d78:	80 93 f2 01 	sts	0x01F2, r24
    3d7c:	0e 94 8d 1e 	call	0x3d1a	; 0x3d1a <GetMonth>
    3d80:	80 93 f1 01 	sts	0x01F1, r24
    3d84:	0e 94 7f 1e 	call	0x3cfe	; 0x3cfe <GetDD>
    3d88:	80 93 f0 01 	sts	0x01F0, r24
    3d8c:	10 92 f8 01 	sts	0x01F8, r1
    3d90:	17 e1       	ldi	r17, 0x17	; 23
    3d92:	85 e0       	ldi	r24, 0x05	; 5
    3d94:	93 e0       	ldi	r25, 0x03	; 3
    3d96:	0e 94 f0 2b 	call	0x57e0	; 0x57e0 <u8g_FirstPage>
    3d9a:	80 e0       	ldi	r24, 0x00	; 0
    3d9c:	0e 94 ba 1d 	call	0x3b74	; 0x3b74 <_draw>
    3da0:	85 e0       	ldi	r24, 0x05	; 5
    3da2:	93 e0       	ldi	r25, 0x03	; 3
    3da4:	0e 94 f5 2b 	call	0x57ea	; 0x57ea <u8g_NextPage>
    3da8:	81 11       	cpse	r24, r1
    3daa:	f7 cf       	rjmp	.-18     	; 0x3d9a <setTimeLoop+0x52>
    3dac:	80 91 f6 01 	lds	r24, 0x01F6
    3db0:	88 23       	and	r24, r24
    3db2:	b1 f0       	breq	.+44     	; 0x3de0 <setTimeLoop+0x98>
    3db4:	90 91 f7 01 	lds	r25, 0x01F7
    3db8:	80 91 f4 01 	lds	r24, 0x01F4
    3dbc:	99 23       	and	r25, r25
    3dbe:	11 f0       	breq	.+4      	; 0x3dc4 <setTimeLoop+0x7c>
    3dc0:	81 50       	subi	r24, 0x01	; 1
    3dc2:	01 c0       	rjmp	.+2      	; 0x3dc6 <setTimeLoop+0x7e>
    3dc4:	8f 5f       	subi	r24, 0xFF	; 255
    3dc6:	80 93 f4 01 	sts	0x01F4, r24
    3dca:	80 91 f4 01 	lds	r24, 0x01F4
    3dce:	87 fd       	sbrc	r24, 7
    3dd0:	10 93 f4 01 	sts	0x01F4, r17
    3dd4:	80 91 f4 01 	lds	r24, 0x01F4
    3dd8:	88 31       	cpi	r24, 0x18	; 24
    3dda:	14 f0       	brlt	.+4      	; 0x3de0 <setTimeLoop+0x98>
    3ddc:	10 92 f4 01 	sts	0x01F4, r1
    3de0:	10 92 f6 01 	sts	0x01F6, r1
    3de4:	2f ef       	ldi	r18, 0xFF	; 255
    3de6:	87 e8       	ldi	r24, 0x87	; 135
    3de8:	93 e1       	ldi	r25, 0x13	; 19
    3dea:	21 50       	subi	r18, 0x01	; 1
    3dec:	80 40       	sbci	r24, 0x00	; 0
    3dee:	90 40       	sbci	r25, 0x00	; 0
    3df0:	e1 f7       	brne	.-8      	; 0x3dea <setTimeLoop+0xa2>
    3df2:	00 c0       	rjmp	.+0      	; 0x3df4 <setTimeLoop+0xac>
    3df4:	00 00       	nop
    3df6:	80 91 f8 01 	lds	r24, 0x01F8
    3dfa:	82 30       	cpi	r24, 0x02	; 2
    3dfc:	50 f2       	brcs	.-108    	; 0x3d92 <setTimeLoop+0x4a>
    3dfe:	10 92 f8 01 	sts	0x01F8, r1
    3e02:	1b e3       	ldi	r17, 0x3B	; 59
    3e04:	85 e0       	ldi	r24, 0x05	; 5
    3e06:	93 e0       	ldi	r25, 0x03	; 3
    3e08:	0e 94 f0 2b 	call	0x57e0	; 0x57e0 <u8g_FirstPage>
    3e0c:	81 e0       	ldi	r24, 0x01	; 1
    3e0e:	0e 94 ba 1d 	call	0x3b74	; 0x3b74 <_draw>
    3e12:	85 e0       	ldi	r24, 0x05	; 5
    3e14:	93 e0       	ldi	r25, 0x03	; 3
    3e16:	0e 94 f5 2b 	call	0x57ea	; 0x57ea <u8g_NextPage>
    3e1a:	81 11       	cpse	r24, r1
    3e1c:	f7 cf       	rjmp	.-18     	; 0x3e0c <setTimeLoop+0xc4>
    3e1e:	80 91 f6 01 	lds	r24, 0x01F6
    3e22:	88 23       	and	r24, r24
    3e24:	b1 f0       	breq	.+44     	; 0x3e52 <setTimeLoop+0x10a>
    3e26:	90 91 f7 01 	lds	r25, 0x01F7
    3e2a:	80 91 f3 01 	lds	r24, 0x01F3
    3e2e:	99 23       	and	r25, r25
    3e30:	11 f0       	breq	.+4      	; 0x3e36 <setTimeLoop+0xee>
    3e32:	81 50       	subi	r24, 0x01	; 1
    3e34:	01 c0       	rjmp	.+2      	; 0x3e38 <setTimeLoop+0xf0>
    3e36:	8f 5f       	subi	r24, 0xFF	; 255
    3e38:	80 93 f3 01 	sts	0x01F3, r24
    3e3c:	80 91 f3 01 	lds	r24, 0x01F3
    3e40:	87 fd       	sbrc	r24, 7
    3e42:	10 93 f3 01 	sts	0x01F3, r17
    3e46:	80 91 f3 01 	lds	r24, 0x01F3
    3e4a:	8c 33       	cpi	r24, 0x3C	; 60
    3e4c:	14 f0       	brlt	.+4      	; 0x3e52 <setTimeLoop+0x10a>
    3e4e:	10 92 f3 01 	sts	0x01F3, r1
    3e52:	10 92 f6 01 	sts	0x01F6, r1
    3e56:	2f ef       	ldi	r18, 0xFF	; 255
    3e58:	87 e8       	ldi	r24, 0x87	; 135
    3e5a:	93 e1       	ldi	r25, 0x13	; 19
    3e5c:	21 50       	subi	r18, 0x01	; 1
    3e5e:	80 40       	sbci	r24, 0x00	; 0
    3e60:	90 40       	sbci	r25, 0x00	; 0
    3e62:	e1 f7       	brne	.-8      	; 0x3e5c <setTimeLoop+0x114>
    3e64:	00 c0       	rjmp	.+0      	; 0x3e66 <setTimeLoop+0x11e>
    3e66:	00 00       	nop
    3e68:	80 91 f8 01 	lds	r24, 0x01F8
    3e6c:	88 23       	and	r24, r24
    3e6e:	51 f2       	breq	.-108    	; 0x3e04 <setTimeLoop+0xbc>
    3e70:	10 92 f8 01 	sts	0x01F8, r1
    3e74:	11 e0       	ldi	r17, 0x01	; 1
    3e76:	07 e0       	ldi	r16, 0x07	; 7
    3e78:	85 e0       	ldi	r24, 0x05	; 5
    3e7a:	93 e0       	ldi	r25, 0x03	; 3
    3e7c:	0e 94 f0 2b 	call	0x57e0	; 0x57e0 <u8g_FirstPage>
    3e80:	82 e0       	ldi	r24, 0x02	; 2
    3e82:	0e 94 ba 1d 	call	0x3b74	; 0x3b74 <_draw>
    3e86:	85 e0       	ldi	r24, 0x05	; 5
    3e88:	93 e0       	ldi	r25, 0x03	; 3
    3e8a:	0e 94 f5 2b 	call	0x57ea	; 0x57ea <u8g_NextPage>
    3e8e:	81 11       	cpse	r24, r1
    3e90:	f7 cf       	rjmp	.-18     	; 0x3e80 <setTimeLoop+0x138>
    3e92:	80 91 f6 01 	lds	r24, 0x01F6
    3e96:	88 23       	and	r24, r24
    3e98:	b9 f0       	breq	.+46     	; 0x3ec8 <setTimeLoop+0x180>
    3e9a:	90 91 f7 01 	lds	r25, 0x01F7
    3e9e:	80 91 f2 01 	lds	r24, 0x01F2
    3ea2:	99 23       	and	r25, r25
    3ea4:	11 f0       	breq	.+4      	; 0x3eaa <setTimeLoop+0x162>
    3ea6:	81 50       	subi	r24, 0x01	; 1
    3ea8:	01 c0       	rjmp	.+2      	; 0x3eac <setTimeLoop+0x164>
    3eaa:	8f 5f       	subi	r24, 0xFF	; 255
    3eac:	80 93 f2 01 	sts	0x01F2, r24
    3eb0:	80 91 f2 01 	lds	r24, 0x01F2
    3eb4:	18 16       	cp	r1, r24
    3eb6:	14 f0       	brlt	.+4      	; 0x3ebc <setTimeLoop+0x174>
    3eb8:	00 93 f2 01 	sts	0x01F2, r16
    3ebc:	80 91 f2 01 	lds	r24, 0x01F2
    3ec0:	88 30       	cpi	r24, 0x08	; 8
    3ec2:	14 f0       	brlt	.+4      	; 0x3ec8 <setTimeLoop+0x180>
    3ec4:	10 93 f2 01 	sts	0x01F2, r17
    3ec8:	10 92 f6 01 	sts	0x01F6, r1
    3ecc:	2f ef       	ldi	r18, 0xFF	; 255
    3ece:	87 e8       	ldi	r24, 0x87	; 135
    3ed0:	93 e1       	ldi	r25, 0x13	; 19
    3ed2:	21 50       	subi	r18, 0x01	; 1
    3ed4:	80 40       	sbci	r24, 0x00	; 0
    3ed6:	90 40       	sbci	r25, 0x00	; 0
    3ed8:	e1 f7       	brne	.-8      	; 0x3ed2 <setTimeLoop+0x18a>
    3eda:	00 c0       	rjmp	.+0      	; 0x3edc <setTimeLoop+0x194>
    3edc:	00 00       	nop
    3ede:	80 91 f8 01 	lds	r24, 0x01F8
    3ee2:	88 23       	and	r24, r24
    3ee4:	49 f2       	breq	.-110    	; 0x3e78 <setTimeLoop+0x130>
    3ee6:	10 92 f8 01 	sts	0x01F8, r1
    3eea:	11 e0       	ldi	r17, 0x01	; 1
    3eec:	0f e1       	ldi	r16, 0x1F	; 31
    3eee:	85 e0       	ldi	r24, 0x05	; 5
    3ef0:	93 e0       	ldi	r25, 0x03	; 3
    3ef2:	0e 94 f0 2b 	call	0x57e0	; 0x57e0 <u8g_FirstPage>
    3ef6:	83 e0       	ldi	r24, 0x03	; 3
    3ef8:	0e 94 ba 1d 	call	0x3b74	; 0x3b74 <_draw>
    3efc:	85 e0       	ldi	r24, 0x05	; 5
    3efe:	93 e0       	ldi	r25, 0x03	; 3
    3f00:	0e 94 f5 2b 	call	0x57ea	; 0x57ea <u8g_NextPage>
    3f04:	81 11       	cpse	r24, r1
    3f06:	f7 cf       	rjmp	.-18     	; 0x3ef6 <setTimeLoop+0x1ae>
    3f08:	80 91 f6 01 	lds	r24, 0x01F6
    3f0c:	88 23       	and	r24, r24
    3f0e:	b9 f0       	breq	.+46     	; 0x3f3e <setTimeLoop+0x1f6>
    3f10:	90 91 f7 01 	lds	r25, 0x01F7
    3f14:	80 91 f0 01 	lds	r24, 0x01F0
    3f18:	99 23       	and	r25, r25
    3f1a:	11 f0       	breq	.+4      	; 0x3f20 <setTimeLoop+0x1d8>
    3f1c:	81 50       	subi	r24, 0x01	; 1
    3f1e:	01 c0       	rjmp	.+2      	; 0x3f22 <setTimeLoop+0x1da>
    3f20:	8f 5f       	subi	r24, 0xFF	; 255
    3f22:	80 93 f0 01 	sts	0x01F0, r24
    3f26:	80 91 f0 01 	lds	r24, 0x01F0
    3f2a:	81 11       	cpse	r24, r1
    3f2c:	02 c0       	rjmp	.+4      	; 0x3f32 <setTimeLoop+0x1ea>
    3f2e:	00 93 f0 01 	sts	0x01F0, r16
    3f32:	80 91 f0 01 	lds	r24, 0x01F0
    3f36:	80 32       	cpi	r24, 0x20	; 32
    3f38:	10 f0       	brcs	.+4      	; 0x3f3e <setTimeLoop+0x1f6>
    3f3a:	10 93 f0 01 	sts	0x01F0, r17
    3f3e:	10 92 f6 01 	sts	0x01F6, r1
    3f42:	2f ef       	ldi	r18, 0xFF	; 255
    3f44:	87 e8       	ldi	r24, 0x87	; 135
    3f46:	93 e1       	ldi	r25, 0x13	; 19
    3f48:	21 50       	subi	r18, 0x01	; 1
    3f4a:	80 40       	sbci	r24, 0x00	; 0
    3f4c:	90 40       	sbci	r25, 0x00	; 0
    3f4e:	e1 f7       	brne	.-8      	; 0x3f48 <setTimeLoop+0x200>
    3f50:	00 c0       	rjmp	.+0      	; 0x3f52 <setTimeLoop+0x20a>
    3f52:	00 00       	nop
    3f54:	80 91 f8 01 	lds	r24, 0x01F8
    3f58:	88 23       	and	r24, r24
    3f5a:	49 f2       	breq	.-110    	; 0x3eee <setTimeLoop+0x1a6>
    3f5c:	10 92 f8 01 	sts	0x01F8, r1
    3f60:	11 e0       	ldi	r17, 0x01	; 1
    3f62:	0c e0       	ldi	r16, 0x0C	; 12
    3f64:	85 e0       	ldi	r24, 0x05	; 5
    3f66:	93 e0       	ldi	r25, 0x03	; 3
    3f68:	0e 94 f0 2b 	call	0x57e0	; 0x57e0 <u8g_FirstPage>
    3f6c:	83 e0       	ldi	r24, 0x03	; 3
    3f6e:	0e 94 ba 1d 	call	0x3b74	; 0x3b74 <_draw>
    3f72:	85 e0       	ldi	r24, 0x05	; 5
    3f74:	93 e0       	ldi	r25, 0x03	; 3
    3f76:	0e 94 f5 2b 	call	0x57ea	; 0x57ea <u8g_NextPage>
    3f7a:	81 11       	cpse	r24, r1
    3f7c:	f7 cf       	rjmp	.-18     	; 0x3f6c <setTimeLoop+0x224>
    3f7e:	80 91 f6 01 	lds	r24, 0x01F6
    3f82:	88 23       	and	r24, r24
    3f84:	b9 f0       	breq	.+46     	; 0x3fb4 <setTimeLoop+0x26c>
    3f86:	90 91 f7 01 	lds	r25, 0x01F7
    3f8a:	80 91 f1 01 	lds	r24, 0x01F1
    3f8e:	99 23       	and	r25, r25
    3f90:	11 f0       	breq	.+4      	; 0x3f96 <setTimeLoop+0x24e>
    3f92:	81 50       	subi	r24, 0x01	; 1
    3f94:	01 c0       	rjmp	.+2      	; 0x3f98 <setTimeLoop+0x250>
    3f96:	8f 5f       	subi	r24, 0xFF	; 255
    3f98:	80 93 f1 01 	sts	0x01F1, r24
    3f9c:	80 91 f1 01 	lds	r24, 0x01F1
    3fa0:	81 11       	cpse	r24, r1
    3fa2:	02 c0       	rjmp	.+4      	; 0x3fa8 <setTimeLoop+0x260>
    3fa4:	00 93 f1 01 	sts	0x01F1, r16
    3fa8:	80 91 f1 01 	lds	r24, 0x01F1
    3fac:	8d 30       	cpi	r24, 0x0D	; 13
    3fae:	10 f0       	brcs	.+4      	; 0x3fb4 <setTimeLoop+0x26c>
    3fb0:	10 93 f1 01 	sts	0x01F1, r17
    3fb4:	10 92 f6 01 	sts	0x01F6, r1
    3fb8:	2f ef       	ldi	r18, 0xFF	; 255
    3fba:	87 e8       	ldi	r24, 0x87	; 135
    3fbc:	93 e1       	ldi	r25, 0x13	; 19
    3fbe:	21 50       	subi	r18, 0x01	; 1
    3fc0:	80 40       	sbci	r24, 0x00	; 0
    3fc2:	90 40       	sbci	r25, 0x00	; 0
    3fc4:	e1 f7       	brne	.-8      	; 0x3fbe <setTimeLoop+0x276>
    3fc6:	00 c0       	rjmp	.+0      	; 0x3fc8 <setTimeLoop+0x280>
    3fc8:	00 00       	nop
    3fca:	80 91 f8 01 	lds	r24, 0x01F8
    3fce:	88 23       	and	r24, r24
    3fd0:	49 f2       	breq	.-110    	; 0x3f64 <setTimeLoop+0x21c>
    3fd2:	10 92 f8 01 	sts	0x01F8, r1
    3fd6:	00 ee       	ldi	r16, 0xE0	; 224
    3fd8:	17 e0       	ldi	r17, 0x07	; 7
    3fda:	85 e0       	ldi	r24, 0x05	; 5
    3fdc:	93 e0       	ldi	r25, 0x03	; 3
    3fde:	0e 94 f0 2b 	call	0x57e0	; 0x57e0 <u8g_FirstPage>
    3fe2:	83 e0       	ldi	r24, 0x03	; 3
    3fe4:	0e 94 ba 1d 	call	0x3b74	; 0x3b74 <_draw>
    3fe8:	85 e0       	ldi	r24, 0x05	; 5
    3fea:	93 e0       	ldi	r25, 0x03	; 3
    3fec:	0e 94 f5 2b 	call	0x57ea	; 0x57ea <u8g_NextPage>
    3ff0:	81 11       	cpse	r24, r1
    3ff2:	f7 cf       	rjmp	.-18     	; 0x3fe2 <setTimeLoop+0x29a>
    3ff4:	80 91 f6 01 	lds	r24, 0x01F6
    3ff8:	88 23       	and	r24, r24
    3ffa:	29 f1       	breq	.+74     	; 0x4046 <setTimeLoop+0x2fe>
    3ffc:	20 91 f7 01 	lds	r18, 0x01F7
    4000:	80 91 00 01 	lds	r24, 0x0100
    4004:	90 91 01 01 	lds	r25, 0x0101
    4008:	22 23       	and	r18, r18
    400a:	11 f0       	breq	.+4      	; 0x4010 <setTimeLoop+0x2c8>
    400c:	01 97       	sbiw	r24, 0x01	; 1
    400e:	01 c0       	rjmp	.+2      	; 0x4012 <setTimeLoop+0x2ca>
    4010:	01 96       	adiw	r24, 0x01	; 1
    4012:	90 93 01 01 	sts	0x0101, r25
    4016:	80 93 00 01 	sts	0x0100, r24
    401a:	80 91 00 01 	lds	r24, 0x0100
    401e:	90 91 01 01 	lds	r25, 0x0101
    4022:	80 3e       	cpi	r24, 0xE0	; 224
    4024:	97 40       	sbci	r25, 0x07	; 7
    4026:	20 f4       	brcc	.+8      	; 0x4030 <setTimeLoop+0x2e8>
    4028:	10 93 01 01 	sts	0x0101, r17
    402c:	00 93 00 01 	sts	0x0100, r16
    4030:	80 91 00 01 	lds	r24, 0x0100
    4034:	90 91 01 01 	lds	r25, 0x0101
    4038:	84 33       	cpi	r24, 0x34	; 52
    403a:	98 40       	sbci	r25, 0x08	; 8
    403c:	20 f0       	brcs	.+8      	; 0x4046 <setTimeLoop+0x2fe>
    403e:	10 93 01 01 	sts	0x0101, r17
    4042:	00 93 00 01 	sts	0x0100, r16
    4046:	10 92 f6 01 	sts	0x01F6, r1
    404a:	8f ef       	ldi	r24, 0xFF	; 255
    404c:	97 e8       	ldi	r25, 0x87	; 135
    404e:	23 e1       	ldi	r18, 0x13	; 19
    4050:	81 50       	subi	r24, 0x01	; 1
    4052:	90 40       	sbci	r25, 0x00	; 0
    4054:	20 40       	sbci	r18, 0x00	; 0
    4056:	e1 f7       	brne	.-8      	; 0x4050 <setTimeLoop+0x308>
    4058:	00 c0       	rjmp	.+0      	; 0x405a <setTimeLoop+0x312>
    405a:	00 00       	nop
    405c:	80 91 f8 01 	lds	r24, 0x01F8
    4060:	88 23       	and	r24, r24
    4062:	09 f4       	brne	.+2      	; 0x4066 <setTimeLoop+0x31e>
    4064:	ba cf       	rjmp	.-140    	; 0x3fda <setTimeLoop+0x292>
    4066:	80 91 f2 01 	lds	r24, 0x01F2
    406a:	90 91 f3 01 	lds	r25, 0x01F3
    406e:	20 91 f4 01 	lds	r18, 0x01F4
    4072:	2e 83       	std	Y+6, r18	; 0x06
    4074:	9d 83       	std	Y+5, r25	; 0x05
    4076:	8c 83       	std	Y+4, r24	; 0x04
    4078:	19 82       	std	Y+1, r1	; 0x01
    407a:	21 e0       	ldi	r18, 0x01	; 1
    407c:	30 e0       	ldi	r19, 0x00	; 0
    407e:	ae 01       	movw	r20, r28
    4080:	4f 5f       	subi	r20, 0xFF	; 255
    4082:	5f 4f       	sbci	r21, 0xFF	; 255
    4084:	60 e0       	ldi	r22, 0x00	; 0
    4086:	70 e0       	ldi	r23, 0x00	; 0
    4088:	80 ed       	ldi	r24, 0xD0	; 208
    408a:	90 e0       	ldi	r25, 0x00	; 0
    408c:	0e 94 3b 1d 	call	0x3a76	; 0x3a76 <i2c_writeReg>
    4090:	8e 81       	ldd	r24, Y+6	; 0x06
    4092:	0e 94 9b 1e 	call	0x3d36	; 0x3d36 <dec2bcd>
    4096:	8e 83       	std	Y+6, r24	; 0x06
    4098:	21 e0       	ldi	r18, 0x01	; 1
    409a:	30 e0       	ldi	r19, 0x00	; 0
    409c:	ae 01       	movw	r20, r28
    409e:	4a 5f       	subi	r20, 0xFA	; 250
    40a0:	5f 4f       	sbci	r21, 0xFF	; 255
    40a2:	62 e0       	ldi	r22, 0x02	; 2
    40a4:	70 e0       	ldi	r23, 0x00	; 0
    40a6:	80 ed       	ldi	r24, 0xD0	; 208
    40a8:	90 e0       	ldi	r25, 0x00	; 0
    40aa:	0e 94 3b 1d 	call	0x3a76	; 0x3a76 <i2c_writeReg>
    40ae:	8d 81       	ldd	r24, Y+5	; 0x05
    40b0:	0e 94 9b 1e 	call	0x3d36	; 0x3d36 <dec2bcd>
    40b4:	8d 83       	std	Y+5, r24	; 0x05
    40b6:	21 e0       	ldi	r18, 0x01	; 1
    40b8:	30 e0       	ldi	r19, 0x00	; 0
    40ba:	ae 01       	movw	r20, r28
    40bc:	4b 5f       	subi	r20, 0xFB	; 251
    40be:	5f 4f       	sbci	r21, 0xFF	; 255
    40c0:	61 e0       	ldi	r22, 0x01	; 1
    40c2:	70 e0       	ldi	r23, 0x00	; 0
    40c4:	80 ed       	ldi	r24, 0xD0	; 208
    40c6:	90 e0       	ldi	r25, 0x00	; 0
    40c8:	0e 94 3b 1d 	call	0x3a76	; 0x3a76 <i2c_writeReg>
    40cc:	8c 81       	ldd	r24, Y+4	; 0x04
    40ce:	0e 94 9b 1e 	call	0x3d36	; 0x3d36 <dec2bcd>
    40d2:	8c 83       	std	Y+4, r24	; 0x04
    40d4:	21 e0       	ldi	r18, 0x01	; 1
    40d6:	30 e0       	ldi	r19, 0x00	; 0
    40d8:	ae 01       	movw	r20, r28
    40da:	4c 5f       	subi	r20, 0xFC	; 252
    40dc:	5f 4f       	sbci	r21, 0xFF	; 255
    40de:	63 e0       	ldi	r22, 0x03	; 3
    40e0:	70 e0       	ldi	r23, 0x00	; 0
    40e2:	80 ed       	ldi	r24, 0xD0	; 208
    40e4:	90 e0       	ldi	r25, 0x00	; 0
    40e6:	0e 94 3b 1d 	call	0x3a76	; 0x3a76 <i2c_writeReg>
    40ea:	90 91 00 01 	lds	r25, 0x0100
    40ee:	80 91 f0 01 	lds	r24, 0x01F0
    40f2:	20 91 f1 01 	lds	r18, 0x01F1
    40f6:	2a 83       	std	Y+2, r18	; 0x02
    40f8:	99 83       	std	Y+1, r25	; 0x01
    40fa:	0e 94 9b 1e 	call	0x3d36	; 0x3d36 <dec2bcd>
    40fe:	8b 83       	std	Y+3, r24	; 0x03
    4100:	21 e0       	ldi	r18, 0x01	; 1
    4102:	30 e0       	ldi	r19, 0x00	; 0
    4104:	ae 01       	movw	r20, r28
    4106:	4d 5f       	subi	r20, 0xFD	; 253
    4108:	5f 4f       	sbci	r21, 0xFF	; 255
    410a:	64 e0       	ldi	r22, 0x04	; 4
    410c:	70 e0       	ldi	r23, 0x00	; 0
    410e:	80 ed       	ldi	r24, 0xD0	; 208
    4110:	90 e0       	ldi	r25, 0x00	; 0
    4112:	0e 94 3b 1d 	call	0x3a76	; 0x3a76 <i2c_writeReg>
    4116:	8a 81       	ldd	r24, Y+2	; 0x02
    4118:	0e 94 9b 1e 	call	0x3d36	; 0x3d36 <dec2bcd>
    411c:	8a 83       	std	Y+2, r24	; 0x02
    411e:	21 e0       	ldi	r18, 0x01	; 1
    4120:	30 e0       	ldi	r19, 0x00	; 0
    4122:	ae 01       	movw	r20, r28
    4124:	4e 5f       	subi	r20, 0xFE	; 254
    4126:	5f 4f       	sbci	r21, 0xFF	; 255
    4128:	65 e0       	ldi	r22, 0x05	; 5
    412a:	70 e0       	ldi	r23, 0x00	; 0
    412c:	80 ed       	ldi	r24, 0xD0	; 208
    412e:	90 e0       	ldi	r25, 0x00	; 0
    4130:	0e 94 3b 1d 	call	0x3a76	; 0x3a76 <i2c_writeReg>
    4134:	89 81       	ldd	r24, Y+1	; 0x01
    4136:	80 5d       	subi	r24, 0xD0	; 208
    4138:	0e 94 9b 1e 	call	0x3d36	; 0x3d36 <dec2bcd>
    413c:	89 83       	std	Y+1, r24	; 0x01
    413e:	21 e0       	ldi	r18, 0x01	; 1
    4140:	30 e0       	ldi	r19, 0x00	; 0
    4142:	ae 01       	movw	r20, r28
    4144:	4f 5f       	subi	r20, 0xFF	; 255
    4146:	5f 4f       	sbci	r21, 0xFF	; 255
    4148:	66 e0       	ldi	r22, 0x06	; 6
    414a:	70 e0       	ldi	r23, 0x00	; 0
    414c:	80 ed       	ldi	r24, 0xD0	; 208
    414e:	90 e0       	ldi	r25, 0x00	; 0
    4150:	0e 94 3b 1d 	call	0x3a76	; 0x3a76 <i2c_writeReg>
    4154:	f0 92 81 00 	sts	0x0081, r15
    4158:	26 96       	adiw	r28, 0x06	; 6
    415a:	0f b6       	in	r0, 0x3f	; 63
    415c:	f8 94       	cli
    415e:	de bf       	out	0x3e, r29	; 62
    4160:	0f be       	out	0x3f, r0	; 63
    4162:	cd bf       	out	0x3d, r28	; 61
    4164:	df 91       	pop	r29
    4166:	cf 91       	pop	r28
    4168:	1f 91       	pop	r17
    416a:	0f 91       	pop	r16
    416c:	ff 90       	pop	r15
    416e:	08 95       	ret

00004170 <Ctrl_Subsystem_step>:
    4170:	cf 93       	push	r28
    4172:	80 91 02 01 	lds	r24, 0x0102
    4176:	91 e0       	ldi	r25, 0x01	; 1
    4178:	18 16       	cp	r1, r24
    417a:	0c f4       	brge	.+2      	; 0x417e <Ctrl_Subsystem_step+0xe>
    417c:	90 e0       	ldi	r25, 0x00	; 0
    417e:	90 93 4e 03 	sts	0x034E, r25
    4182:	20 91 67 03 	lds	r18, 0x0367
    4186:	30 91 f9 01 	lds	r19, 0x01F9
    418a:	23 27       	eor	r18, r19
    418c:	20 93 66 03 	sts	0x0366, r18
    4190:	30 91 68 03 	lds	r19, 0x0368
    4194:	40 91 fa 01 	lds	r20, 0x01FA
    4198:	34 27       	eor	r19, r20
    419a:	30 93 69 03 	sts	0x0369, r19
    419e:	60 91 f5 01 	lds	r22, 0x01F5
    41a2:	91 11       	cpse	r25, r1
    41a4:	5a c0       	rjmp	.+180    	; 0x425a <Ctrl_Subsystem_step+0xea>
    41a6:	c1 e0       	ldi	r28, 0x01	; 1
    41a8:	18 16       	cp	r1, r24
    41aa:	0c f0       	brlt	.+2      	; 0x41ae <Ctrl_Subsystem_step+0x3e>
    41ac:	c0 e0       	ldi	r28, 0x00	; 0
    41ae:	8f 31       	cpi	r24, 0x1F	; 31
    41b0:	24 f4       	brge	.+8      	; 0x41ba <Ctrl_Subsystem_step+0x4a>
    41b2:	8f 30       	cpi	r24, 0x0F	; 15
    41b4:	1c f4       	brge	.+6      	; 0x41bc <Ctrl_Subsystem_step+0x4c>
    41b6:	8f e0       	ldi	r24, 0x0F	; 15
    41b8:	01 c0       	rjmp	.+2      	; 0x41bc <Ctrl_Subsystem_step+0x4c>
    41ba:	8e e1       	ldi	r24, 0x1E	; 30
    41bc:	99 27       	eor	r25, r25
    41be:	87 fd       	sbrc	r24, 7
    41c0:	90 95       	com	r25
    41c2:	70 e0       	ldi	r23, 0x00	; 0
    41c4:	21 11       	cpse	r18, r1
    41c6:	07 c0       	rjmp	.+14     	; 0x41d6 <Ctrl_Subsystem_step+0x66>
    41c8:	21 e0       	ldi	r18, 0x01	; 1
    41ca:	68 17       	cp	r22, r24
    41cc:	79 07       	cpc	r23, r25
    41ce:	0c f0       	brlt	.+2      	; 0x41d2 <Ctrl_Subsystem_step+0x62>
    41d0:	20 e0       	ldi	r18, 0x00	; 0
    41d2:	30 e0       	ldi	r19, 0x00	; 0
    41d4:	2b c0       	rjmp	.+86     	; 0x422c <Ctrl_Subsystem_step+0xbc>
    41d6:	4e e6       	ldi	r20, 0x6E	; 110
    41d8:	53 e0       	ldi	r21, 0x03	; 3
    41da:	0e 94 fb 22 	call	0x45f6	; 0x45f6 <pid_Controller>
    41de:	90 93 52 03 	sts	0x0352, r25
    41e2:	80 93 51 03 	sts	0x0351, r24
    41e6:	20 91 ec 02 	lds	r18, 0x02EC
    41ea:	21 11       	cpse	r18, r1
    41ec:	0b c0       	rjmp	.+22     	; 0x4204 <Ctrl_Subsystem_step+0x94>
    41ee:	41 e0       	ldi	r20, 0x01	; 1
    41f0:	9c 01       	movw	r18, r24
    41f2:	30 5e       	subi	r19, 0xE0	; 224
    41f4:	21 15       	cp	r18, r1
    41f6:	30 42       	sbci	r19, 0x20	; 32
    41f8:	08 f0       	brcs	.+2      	; 0x41fc <Ctrl_Subsystem_step+0x8c>
    41fa:	40 e0       	ldi	r20, 0x00	; 0
    41fc:	81 15       	cp	r24, r1
    41fe:	90 4e       	sbci	r25, 0xE0	; 224
    4200:	34 f0       	brlt	.+12     	; 0x420e <Ctrl_Subsystem_step+0x9e>
    4202:	09 c0       	rjmp	.+18     	; 0x4216 <Ctrl_Subsystem_step+0xa6>
    4204:	49 2f       	mov	r20, r25
    4206:	44 1f       	adc	r20, r20
    4208:	44 27       	eor	r20, r20
    420a:	44 1f       	adc	r20, r20
    420c:	04 c0       	rjmp	.+8      	; 0x4216 <Ctrl_Subsystem_step+0xa6>
    420e:	80 91 16 02 	lds	r24, 0x0216
    4212:	81 11       	cpse	r24, r1
    4214:	02 c0       	rjmp	.+4      	; 0x421a <Ctrl_Subsystem_step+0xaa>
    4216:	30 e0       	ldi	r19, 0x00	; 0
    4218:	01 c0       	rjmp	.+2      	; 0x421c <Ctrl_Subsystem_step+0xac>
    421a:	31 e0       	ldi	r19, 0x01	; 1
    421c:	44 23       	and	r20, r20
    421e:	29 f0       	breq	.+10     	; 0x422a <Ctrl_Subsystem_step+0xba>
    4220:	21 e0       	ldi	r18, 0x01	; 1
    4222:	80 91 16 02 	lds	r24, 0x0216
    4226:	81 11       	cpse	r24, r1
    4228:	01 c0       	rjmp	.+2      	; 0x422c <Ctrl_Subsystem_step+0xbc>
    422a:	20 e0       	ldi	r18, 0x00	; 0
    422c:	90 91 69 03 	lds	r25, 0x0369
    4230:	cc 23       	and	r28, r28
    4232:	29 f0       	breq	.+10     	; 0x423e <Ctrl_Subsystem_step+0xce>
    4234:	99 23       	and	r25, r25
    4236:	19 f0       	breq	.+6      	; 0x423e <Ctrl_Subsystem_step+0xce>
    4238:	81 e0       	ldi	r24, 0x01	; 1
    423a:	31 11       	cpse	r19, r1
    423c:	01 c0       	rjmp	.+2      	; 0x4240 <Ctrl_Subsystem_step+0xd0>
    423e:	80 e0       	ldi	r24, 0x00	; 0
    4240:	80 93 6b 03 	sts	0x036B, r24
    4244:	22 23       	and	r18, r18
    4246:	29 f0       	breq	.+10     	; 0x4252 <Ctrl_Subsystem_step+0xe2>
    4248:	99 23       	and	r25, r25
    424a:	19 f0       	breq	.+6      	; 0x4252 <Ctrl_Subsystem_step+0xe2>
    424c:	81 e0       	ldi	r24, 0x01	; 1
    424e:	c1 11       	cpse	r28, r1
    4250:	01 c0       	rjmp	.+2      	; 0x4254 <Ctrl_Subsystem_step+0xe4>
    4252:	80 e0       	ldi	r24, 0x00	; 0
    4254:	80 93 6a 03 	sts	0x036A, r24
    4258:	50 c0       	rjmp	.+160    	; 0x42fa <Ctrl_Subsystem_step+0x18a>
    425a:	81 95       	neg	r24
    425c:	8f 31       	cpi	r24, 0x1F	; 31
    425e:	24 f4       	brge	.+8      	; 0x4268 <Ctrl_Subsystem_step+0xf8>
    4260:	8f 30       	cpi	r24, 0x0F	; 15
    4262:	1c f4       	brge	.+6      	; 0x426a <Ctrl_Subsystem_step+0xfa>
    4264:	8f e0       	ldi	r24, 0x0F	; 15
    4266:	01 c0       	rjmp	.+2      	; 0x426a <Ctrl_Subsystem_step+0xfa>
    4268:	8e e1       	ldi	r24, 0x1E	; 30
    426a:	99 27       	eor	r25, r25
    426c:	87 fd       	sbrc	r24, 7
    426e:	90 95       	com	r25
    4270:	70 e0       	ldi	r23, 0x00	; 0
    4272:	21 11       	cpse	r18, r1
    4274:	07 c0       	rjmp	.+14     	; 0x4284 <Ctrl_Subsystem_step+0x114>
    4276:	21 e0       	ldi	r18, 0x01	; 1
    4278:	86 17       	cp	r24, r22
    427a:	97 07       	cpc	r25, r23
    427c:	0c f0       	brlt	.+2      	; 0x4280 <Ctrl_Subsystem_step+0x110>
    427e:	20 e0       	ldi	r18, 0x00	; 0
    4280:	90 e0       	ldi	r25, 0x00	; 0
    4282:	29 c0       	rjmp	.+82     	; 0x42d6 <Ctrl_Subsystem_step+0x166>
    4284:	43 e5       	ldi	r20, 0x53	; 83
    4286:	53 e0       	ldi	r21, 0x03	; 3
    4288:	0e 94 fb 22 	call	0x45f6	; 0x45f6 <pid_Controller>
    428c:	90 93 50 03 	sts	0x0350, r25
    4290:	80 93 4f 03 	sts	0x034F, r24
    4294:	20 91 ec 02 	lds	r18, 0x02EC
    4298:	50 91 69 03 	lds	r21, 0x0369
    429c:	21 11       	cpse	r18, r1
    429e:	0b c0       	rjmp	.+22     	; 0x42b6 <Ctrl_Subsystem_step+0x146>
    42a0:	41 e0       	ldi	r20, 0x01	; 1
    42a2:	9c 01       	movw	r18, r24
    42a4:	30 5e       	subi	r19, 0xE0	; 224
    42a6:	21 15       	cp	r18, r1
    42a8:	30 42       	sbci	r19, 0x20	; 32
    42aa:	08 f0       	brcs	.+2      	; 0x42ae <Ctrl_Subsystem_step+0x13e>
    42ac:	40 e0       	ldi	r20, 0x00	; 0
    42ae:	81 15       	cp	r24, r1
    42b0:	90 4e       	sbci	r25, 0xE0	; 224
    42b2:	34 f0       	brlt	.+12     	; 0x42c0 <Ctrl_Subsystem_step+0x150>
    42b4:	07 c0       	rjmp	.+14     	; 0x42c4 <Ctrl_Subsystem_step+0x154>
    42b6:	49 2f       	mov	r20, r25
    42b8:	44 1f       	adc	r20, r20
    42ba:	44 27       	eor	r20, r20
    42bc:	44 1f       	adc	r20, r20
    42be:	02 c0       	rjmp	.+4      	; 0x42c4 <Ctrl_Subsystem_step+0x154>
    42c0:	51 11       	cpse	r21, r1
    42c2:	02 c0       	rjmp	.+4      	; 0x42c8 <Ctrl_Subsystem_step+0x158>
    42c4:	90 e0       	ldi	r25, 0x00	; 0
    42c6:	01 c0       	rjmp	.+2      	; 0x42ca <Ctrl_Subsystem_step+0x15a>
    42c8:	91 e0       	ldi	r25, 0x01	; 1
    42ca:	44 23       	and	r20, r20
    42cc:	19 f0       	breq	.+6      	; 0x42d4 <Ctrl_Subsystem_step+0x164>
    42ce:	21 e0       	ldi	r18, 0x01	; 1
    42d0:	51 11       	cpse	r21, r1
    42d2:	01 c0       	rjmp	.+2      	; 0x42d6 <Ctrl_Subsystem_step+0x166>
    42d4:	20 e0       	ldi	r18, 0x00	; 0
    42d6:	80 91 16 02 	lds	r24, 0x0216
    42da:	22 23       	and	r18, r18
    42dc:	19 f0       	breq	.+6      	; 0x42e4 <Ctrl_Subsystem_step+0x174>
    42de:	21 e0       	ldi	r18, 0x01	; 1
    42e0:	81 11       	cpse	r24, r1
    42e2:	01 c0       	rjmp	.+2      	; 0x42e6 <Ctrl_Subsystem_step+0x176>
    42e4:	20 e0       	ldi	r18, 0x00	; 0
    42e6:	20 93 6c 03 	sts	0x036C, r18
    42ea:	88 23       	and	r24, r24
    42ec:	19 f0       	breq	.+6      	; 0x42f4 <Ctrl_Subsystem_step+0x184>
    42ee:	81 e0       	ldi	r24, 0x01	; 1
    42f0:	91 11       	cpse	r25, r1
    42f2:	01 c0       	rjmp	.+2      	; 0x42f6 <Ctrl_Subsystem_step+0x186>
    42f4:	80 e0       	ldi	r24, 0x00	; 0
    42f6:	80 93 6d 03 	sts	0x036D, r24
    42fa:	81 e0       	ldi	r24, 0x01	; 1
    42fc:	90 91 4e 03 	lds	r25, 0x034E
    4300:	91 11       	cpse	r25, r1
    4302:	80 e0       	ldi	r24, 0x00	; 0
    4304:	80 93 65 03 	sts	0x0365, r24
    4308:	80 91 66 03 	lds	r24, 0x0366
    430c:	80 93 67 03 	sts	0x0367, r24
    4310:	80 91 69 03 	lds	r24, 0x0369
    4314:	80 93 68 03 	sts	0x0368, r24
    4318:	cf 91       	pop	r28
    431a:	08 95       	ret

0000431c <initTempSens>:
    431c:	0e 94 d3 21 	call	0x43a6	; 0x43a6 <spi_init>
    4320:	55 9a       	sbi	0x0a, 5	; 10
    4322:	5d 9a       	sbi	0x0b, 5	; 11
    4324:	08 95       	ret

00004326 <actualTemperature>:
    4326:	cf 92       	push	r12
    4328:	df 92       	push	r13
    432a:	ef 92       	push	r14
    432c:	ff 92       	push	r15
    432e:	cf 93       	push	r28
    4330:	df 93       	push	r29
    4332:	00 d0       	rcall	.+0      	; 0x4334 <actualTemperature+0xe>
    4334:	cd b7       	in	r28, 0x3d	; 61
    4336:	de b7       	in	r29, 0x3e	; 62
    4338:	19 82       	std	Y+1, r1	; 0x01
    433a:	1a 82       	std	Y+2, r1	; 0x02
    433c:	5d 98       	cbi	0x0b, 5	; 11
    433e:	85 e3       	ldi	r24, 0x35	; 53
    4340:	8a 95       	dec	r24
    4342:	f1 f7       	brne	.-4      	; 0x4340 <actualTemperature+0x1a>
    4344:	00 00       	nop
    4346:	42 e0       	ldi	r20, 0x02	; 2
    4348:	be 01       	movw	r22, r28
    434a:	6f 5f       	subi	r22, 0xFF	; 255
    434c:	7f 4f       	sbci	r23, 0xFF	; 255
    434e:	cb 01       	movw	r24, r22
    4350:	0e 94 e0 21 	call	0x43c0	; 0x43c0 <spi_transfer_sync>
    4354:	85 e3       	ldi	r24, 0x35	; 53
    4356:	8a 95       	dec	r24
    4358:	f1 f7       	brne	.-4      	; 0x4356 <actualTemperature+0x30>
    435a:	00 00       	nop
    435c:	5d 9a       	sbi	0x0b, 5	; 11
    435e:	69 81       	ldd	r22, Y+1	; 0x01
    4360:	70 e0       	ldi	r23, 0x00	; 0
    4362:	76 2f       	mov	r23, r22
    4364:	66 27       	eor	r22, r22
    4366:	8a 81       	ldd	r24, Y+2	; 0x02
    4368:	68 0f       	add	r22, r24
    436a:	71 1d       	adc	r23, r1
    436c:	88 27       	eor	r24, r24
    436e:	77 fd       	sbrc	r23, 7
    4370:	80 95       	com	r24
    4372:	98 2f       	mov	r25, r24
    4374:	0e 94 c1 2f 	call	0x5f82	; 0x5f82 <__floatsisf>
    4378:	20 e0       	ldi	r18, 0x00	; 0
    437a:	30 e0       	ldi	r19, 0x00	; 0
    437c:	40 e0       	ldi	r20, 0x00	; 0
    437e:	5d e3       	ldi	r21, 0x3D	; 61
    4380:	0e 94 25 30 	call	0x604a	; 0x604a <__mulsf3>
    4384:	6b 01       	movw	r12, r22
    4386:	7c 01       	movw	r14, r24
    4388:	0e 94 93 2f 	call	0x5f26	; 0x5f26 <__fixunssfsi>
    438c:	60 93 f5 01 	sts	0x01F5, r22
    4390:	c7 01       	movw	r24, r14
    4392:	b6 01       	movw	r22, r12
    4394:	0f 90       	pop	r0
    4396:	0f 90       	pop	r0
    4398:	df 91       	pop	r29
    439a:	cf 91       	pop	r28
    439c:	ff 90       	pop	r15
    439e:	ef 90       	pop	r14
    43a0:	df 90       	pop	r13
    43a2:	cf 90       	pop	r12
    43a4:	08 95       	ret

000043a6 <spi_init>:
    43a6:	84 b1       	in	r24, 0x04	; 4
    43a8:	87 7c       	andi	r24, 0xC7	; 199
    43aa:	84 b9       	out	0x04, r24	; 4
    43ac:	84 b1       	in	r24, 0x04	; 4
    43ae:	88 62       	ori	r24, 0x28	; 40
    43b0:	84 b9       	out	0x04, r24	; 4
    43b2:	22 9a       	sbi	0x04, 2	; 4
    43b4:	2a 9a       	sbi	0x05, 2	; 5
    43b6:	81 e5       	ldi	r24, 0x51	; 81
    43b8:	8c bd       	out	0x2c, r24	; 44
    43ba:	81 e0       	ldi	r24, 0x01	; 1
    43bc:	8d bd       	out	0x2d, r24	; 45
    43be:	08 95       	ret

000043c0 <spi_transfer_sync>:
    43c0:	26 2f       	mov	r18, r22
    43c2:	fb 01       	movw	r30, r22
    43c4:	3e 2f       	mov	r19, r30
    43c6:	32 1b       	sub	r19, r18
    43c8:	34 17       	cp	r19, r20
    43ca:	50 f4       	brcc	.+20     	; 0x43e0 <spi_transfer_sync+0x20>
    43cc:	dc 01       	movw	r26, r24
    43ce:	3d 91       	ld	r19, X+
    43d0:	cd 01       	movw	r24, r26
    43d2:	3e bd       	out	0x2e, r19	; 46
    43d4:	0d b4       	in	r0, 0x2d	; 45
    43d6:	07 fe       	sbrs	r0, 7
    43d8:	fd cf       	rjmp	.-6      	; 0x43d4 <spi_transfer_sync+0x14>
    43da:	3e b5       	in	r19, 0x2e	; 46
    43dc:	31 93       	st	Z+, r19
    43de:	f2 cf       	rjmp	.-28     	; 0x43c4 <spi_transfer_sync+0x4>
    43e0:	08 95       	ret

000043e2 <initRtrEncoder>:
    43e2:	52 98       	cbi	0x0a, 2	; 10
    43e4:	54 98       	cbi	0x0a, 4	; 10
    43e6:	5a 98       	cbi	0x0b, 2	; 11
    43e8:	5c 98       	cbi	0x0b, 4	; 11
    43ea:	e9 e6       	ldi	r30, 0x69	; 105
    43ec:	f0 e0       	ldi	r31, 0x00	; 0
    43ee:	80 81       	ld	r24, Z
    43f0:	8e 60       	ori	r24, 0x0E	; 14
    43f2:	80 83       	st	Z, r24
    43f4:	8d b3       	in	r24, 0x1d	; 29
    43f6:	83 60       	ori	r24, 0x03	; 3
    43f8:	8d bb       	out	0x1d, r24	; 29
    43fa:	08 95       	ret

000043fc <__vector_1>:
    43fc:	1f 92       	push	r1
    43fe:	0f 92       	push	r0
    4400:	0f b6       	in	r0, 0x3f	; 63
    4402:	0f 92       	push	r0
    4404:	11 24       	eor	r1, r1
    4406:	8f 93       	push	r24
    4408:	9f 93       	push	r25
    440a:	4a 9b       	sbis	0x09, 2	; 9
    440c:	04 c0       	rjmp	.+8      	; 0x4416 <__vector_1+0x1a>
    440e:	89 b1       	in	r24, 0x09	; 9
    4410:	82 95       	swap	r24
    4412:	81 70       	andi	r24, 0x01	; 1
    4414:	05 c0       	rjmp	.+10     	; 0x4420 <__vector_1+0x24>
    4416:	89 b1       	in	r24, 0x09	; 9
    4418:	82 95       	swap	r24
    441a:	81 70       	andi	r24, 0x01	; 1
    441c:	91 e0       	ldi	r25, 0x01	; 1
    441e:	89 27       	eor	r24, r25
    4420:	80 93 f7 01 	sts	0x01F7, r24
    4424:	81 e0       	ldi	r24, 0x01	; 1
    4426:	80 93 f6 01 	sts	0x01F6, r24
    442a:	9f 91       	pop	r25
    442c:	8f 91       	pop	r24
    442e:	0f 90       	pop	r0
    4430:	0f be       	out	0x3f, r0	; 63
    4432:	0f 90       	pop	r0
    4434:	1f 90       	pop	r1
    4436:	18 95       	reti

00004438 <__vector_2>:
    4438:	1f 92       	push	r1
    443a:	0f 92       	push	r0
    443c:	0f b6       	in	r0, 0x3f	; 63
    443e:	0f 92       	push	r0
    4440:	11 24       	eor	r1, r1
    4442:	2f 93       	push	r18
    4444:	8f 93       	push	r24
    4446:	9f 93       	push	r25
    4448:	af 93       	push	r26
    444a:	bf 93       	push	r27
    444c:	cf 93       	push	r28
    444e:	df 93       	push	r29
    4450:	ef 93       	push	r30
    4452:	ff 93       	push	r31
    4454:	c0 91 fc 01 	lds	r28, 0x01FC
    4458:	80 91 9b 02 	lds	r24, 0x029B
    445c:	25 e0       	ldi	r18, 0x05	; 5
    445e:	2c 9f       	mul	r18, r28
    4460:	e0 01       	movw	r28, r0
    4462:	11 24       	eor	r1, r1
    4464:	c3 50       	subi	r28, 0x03	; 3
    4466:	de 4f       	sbci	r29, 0xFE	; 254
    4468:	90 e0       	ldi	r25, 0x00	; 0
    446a:	a0 e0       	ldi	r26, 0x00	; 0
    446c:	b0 e0       	ldi	r27, 0x00	; 0
    446e:	88 83       	st	Y, r24
    4470:	99 83       	std	Y+1, r25	; 0x01
    4472:	aa 83       	std	Y+2, r26	; 0x02
    4474:	bb 83       	std	Y+3, r27	; 0x03
    4476:	e0 91 fc 01 	lds	r30, 0x01FC
    447a:	2e 9f       	mul	r18, r30
    447c:	f0 01       	movw	r30, r0
    447e:	11 24       	eor	r1, r1
    4480:	e3 50       	subi	r30, 0x03	; 3
    4482:	fe 4f       	sbci	r31, 0xFE	; 254
    4484:	81 e0       	ldi	r24, 0x01	; 1
    4486:	84 83       	std	Z+4, r24	; 0x04
    4488:	80 91 fc 01 	lds	r24, 0x01FC
    448c:	8f 5f       	subi	r24, 0xFF	; 255
    448e:	80 93 fc 01 	sts	0x01FC, r24
    4492:	80 91 fc 01 	lds	r24, 0x01FC
    4496:	85 30       	cpi	r24, 0x05	; 5
    4498:	11 f4       	brne	.+4      	; 0x449e <__vector_2+0x66>
    449a:	10 92 fc 01 	sts	0x01FC, r1
    449e:	80 91 f8 01 	lds	r24, 0x01F8
    44a2:	82 30       	cpi	r24, 0x02	; 2
    44a4:	28 f4       	brcc	.+10     	; 0x44b0 <__vector_2+0x78>
    44a6:	80 91 f8 01 	lds	r24, 0x01F8
    44aa:	8f 5f       	subi	r24, 0xFF	; 255
    44ac:	80 93 f8 01 	sts	0x01F8, r24
    44b0:	ff 91       	pop	r31
    44b2:	ef 91       	pop	r30
    44b4:	df 91       	pop	r29
    44b6:	cf 91       	pop	r28
    44b8:	bf 91       	pop	r27
    44ba:	af 91       	pop	r26
    44bc:	9f 91       	pop	r25
    44be:	8f 91       	pop	r24
    44c0:	2f 91       	pop	r18
    44c2:	0f 90       	pop	r0
    44c4:	0f be       	out	0x3f, r0	; 63
    44c6:	0f 90       	pop	r0
    44c8:	1f 90       	pop	r1
    44ca:	18 95       	reti

000044cc <checkStruct>:
    44cc:	1f 93       	push	r17
    44ce:	cf 93       	push	r28
    44d0:	df 93       	push	r29
    44d2:	f8 94       	cli
    44d4:	10 92 fc 01 	sts	0x01FC, r1
    44d8:	10 92 fa 01 	sts	0x01FA, r1
    44dc:	c0 91 15 02 	lds	r28, 0x0215
    44e0:	d0 91 01 02 	lds	r29, 0x0201
    44e4:	80 91 fd 01 	lds	r24, 0x01FD
    44e8:	90 91 11 02 	lds	r25, 0x0211
    44ec:	89 1b       	sub	r24, r25
    44ee:	99 27       	eor	r25, r25
    44f0:	87 fd       	sbrc	r24, 7
    44f2:	90 95       	com	r25
    44f4:	97 ff       	sbrs	r25, 7
    44f6:	03 c0       	rjmp	.+6      	; 0x44fe <checkStruct+0x32>
    44f8:	91 95       	neg	r25
    44fa:	81 95       	neg	r24
    44fc:	91 09       	sbc	r25, r1
    44fe:	18 2f       	mov	r17, r24
    4500:	40 91 fa 01 	lds	r20, 0x01FA
    4504:	50 e0       	ldi	r21, 0x00	; 0
    4506:	80 e0       	ldi	r24, 0x00	; 0
    4508:	90 e0       	ldi	r25, 0x00	; 0
    450a:	75 e0       	ldi	r23, 0x05	; 5
    450c:	84 30       	cpi	r24, 0x04	; 4
    450e:	91 05       	cpc	r25, r1
    4510:	f9 f0       	breq	.+62     	; 0x4550 <checkStruct+0x84>
    4512:	78 9f       	mul	r23, r24
    4514:	f0 01       	movw	r30, r0
    4516:	79 9f       	mul	r23, r25
    4518:	f0 0d       	add	r31, r0
    451a:	11 24       	eor	r1, r1
    451c:	e3 50       	subi	r30, 0x03	; 3
    451e:	fe 4f       	sbci	r31, 0xFE	; 254
    4520:	24 81       	ldd	r18, Z+4	; 0x04
    4522:	21 30       	cpi	r18, 0x01	; 1
    4524:	f9 f4       	brne	.+62     	; 0x4564 <checkStruct+0x98>
    4526:	9c 01       	movw	r18, r24
    4528:	2f 5f       	subi	r18, 0xFF	; 255
    452a:	3f 4f       	sbci	r19, 0xFF	; 255
    452c:	72 9f       	mul	r23, r18
    452e:	d0 01       	movw	r26, r0
    4530:	73 9f       	mul	r23, r19
    4532:	b0 0d       	add	r27, r0
    4534:	11 24       	eor	r1, r1
    4536:	a3 50       	subi	r26, 0x03	; 3
    4538:	be 4f       	sbci	r27, 0xFE	; 254
    453a:	14 96       	adiw	r26, 0x04	; 4
    453c:	6c 91       	ld	r22, X
    453e:	14 97       	sbiw	r26, 0x04	; 4
    4540:	61 30       	cpi	r22, 0x01	; 1
    4542:	61 f4       	brne	.+24     	; 0x455c <checkStruct+0x90>
    4544:	6c 91       	ld	r22, X
    4546:	e0 81       	ld	r30, Z
    4548:	6e 1b       	sub	r22, r30
    454a:	67 30       	cpi	r22, 0x07	; 7
    454c:	4c f0       	brlt	.+18     	; 0x4560 <checkStruct+0x94>
    454e:	06 c0       	rjmp	.+12     	; 0x455c <checkStruct+0x90>
    4550:	c1 30       	cpi	r28, 0x01	; 1
    4552:	41 f4       	brne	.+16     	; 0x4564 <checkStruct+0x98>
    4554:	d1 30       	cpi	r29, 0x01	; 1
    4556:	11 f4       	brne	.+4      	; 0x455c <checkStruct+0x90>
    4558:	17 30       	cpi	r17, 0x07	; 7
    455a:	1c f0       	brlt	.+6      	; 0x4562 <checkStruct+0x96>
    455c:	41 e0       	ldi	r20, 0x01	; 1
    455e:	02 c0       	rjmp	.+4      	; 0x4564 <checkStruct+0x98>
    4560:	c9 01       	movw	r24, r18
    4562:	51 e0       	ldi	r21, 0x01	; 1
    4564:	01 96       	adiw	r24, 0x01	; 1
    4566:	85 30       	cpi	r24, 0x05	; 5
    4568:	91 05       	cpc	r25, r1
    456a:	84 f2       	brlt	.-96     	; 0x450c <checkStruct+0x40>
    456c:	50 93 f9 01 	sts	0x01F9, r21
    4570:	40 93 fa 01 	sts	0x01FA, r20
    4574:	e1 e0       	ldi	r30, 0x01	; 1
    4576:	f2 e0       	ldi	r31, 0x02	; 2
    4578:	10 82       	st	Z, r1
    457a:	df 01       	movw	r26, r30
    457c:	14 97       	sbiw	r26, 0x04	; 4
    457e:	1d 92       	st	X+, r1
    4580:	1d 92       	st	X+, r1
    4582:	1d 92       	st	X+, r1
    4584:	1c 92       	st	X, r1
    4586:	13 97       	sbiw	r26, 0x03	; 3
    4588:	35 96       	adiw	r30, 0x05	; 5
    458a:	82 e0       	ldi	r24, 0x02	; 2
    458c:	ea 31       	cpi	r30, 0x1A	; 26
    458e:	f8 07       	cpc	r31, r24
    4590:	99 f7       	brne	.-26     	; 0x4578 <checkStruct+0xac>
    4592:	78 94       	sei
    4594:	df 91       	pop	r29
    4596:	cf 91       	pop	r28
    4598:	1f 91       	pop	r17
    459a:	08 95       	ret

0000459c <pid_Init>:
    459c:	cf 93       	push	r28
    459e:	df 93       	push	r29
    45a0:	fb 01       	movw	r30, r22
    45a2:	e9 01       	movw	r28, r18
    45a4:	1a 82       	std	Y+2, r1	; 0x02
    45a6:	1b 82       	std	Y+3, r1	; 0x03
    45a8:	1c 82       	std	Y+4, r1	; 0x04
    45aa:	1d 82       	std	Y+5, r1	; 0x05
    45ac:	19 82       	std	Y+1, r1	; 0x01
    45ae:	18 82       	st	Y, r1
    45b0:	9f 83       	std	Y+7, r25	; 0x07
    45b2:	8e 83       	std	Y+6, r24	; 0x06
    45b4:	79 87       	std	Y+9, r23	; 0x09
    45b6:	68 87       	std	Y+8, r22	; 0x08
    45b8:	5b 87       	std	Y+11, r21	; 0x0b
    45ba:	4a 87       	std	Y+10, r20	; 0x0a
    45bc:	bc 01       	movw	r22, r24
    45be:	6f 5f       	subi	r22, 0xFF	; 255
    45c0:	7f 4f       	sbci	r23, 0xFF	; 255
    45c2:	8f ef       	ldi	r24, 0xFF	; 255
    45c4:	9f e7       	ldi	r25, 0x7F	; 127
    45c6:	0e 94 0b 2f 	call	0x5e16	; 0x5e16 <__divmodhi4>
    45ca:	7d 87       	std	Y+13, r23	; 0x0d
    45cc:	6c 87       	std	Y+12, r22	; 0x0c
    45ce:	9f 01       	movw	r18, r30
    45d0:	2f 5f       	subi	r18, 0xFF	; 255
    45d2:	3f 4f       	sbci	r19, 0xFF	; 255
    45d4:	44 27       	eor	r20, r20
    45d6:	37 fd       	sbrc	r19, 7
    45d8:	40 95       	com	r20
    45da:	54 2f       	mov	r21, r20
    45dc:	6f ef       	ldi	r22, 0xFF	; 255
    45de:	7f ef       	ldi	r23, 0xFF	; 255
    45e0:	8f ef       	ldi	r24, 0xFF	; 255
    45e2:	9f e3       	ldi	r25, 0x3F	; 63
    45e4:	0e 94 1f 2f 	call	0x5e3e	; 0x5e3e <__divmodsi4>
    45e8:	2e 87       	std	Y+14, r18	; 0x0e
    45ea:	3f 87       	std	Y+15, r19	; 0x0f
    45ec:	48 8b       	std	Y+16, r20	; 0x10
    45ee:	59 8b       	std	Y+17, r21	; 0x11
    45f0:	df 91       	pop	r29
    45f2:	cf 91       	pop	r28
    45f4:	08 95       	ret

000045f6 <pid_Controller>:
    45f6:	cf 92       	push	r12
    45f8:	df 92       	push	r13
    45fa:	ef 92       	push	r14
    45fc:	ff 92       	push	r15
    45fe:	0f 93       	push	r16
    4600:	1f 93       	push	r17
    4602:	cf 93       	push	r28
    4604:	df 93       	push	r29
    4606:	8b 01       	movw	r16, r22
    4608:	fa 01       	movw	r30, r20
    460a:	9c 01       	movw	r18, r24
    460c:	26 1b       	sub	r18, r22
    460e:	37 0b       	sbc	r19, r23
    4610:	84 85       	ldd	r24, Z+12	; 0x0c
    4612:	95 85       	ldd	r25, Z+13	; 0x0d
    4614:	82 17       	cp	r24, r18
    4616:	93 07       	cpc	r25, r19
    4618:	84 f0       	brlt	.+32     	; 0x463a <pid_Controller+0x44>
    461a:	91 95       	neg	r25
    461c:	81 95       	neg	r24
    461e:	91 09       	sbc	r25, r1
    4620:	28 17       	cp	r18, r24
    4622:	39 07       	cpc	r19, r25
    4624:	6c f0       	brlt	.+26     	; 0x4640 <pid_Controller+0x4a>
    4626:	86 81       	ldd	r24, Z+6	; 0x06
    4628:	97 81       	ldd	r25, Z+7	; 0x07
    462a:	28 9f       	mul	r18, r24
    462c:	e0 01       	movw	r28, r0
    462e:	29 9f       	mul	r18, r25
    4630:	d0 0d       	add	r29, r0
    4632:	38 9f       	mul	r19, r24
    4634:	d0 0d       	add	r29, r0
    4636:	11 24       	eor	r1, r1
    4638:	05 c0       	rjmp	.+10     	; 0x4644 <pid_Controller+0x4e>
    463a:	cf ef       	ldi	r28, 0xFF	; 255
    463c:	df e7       	ldi	r29, 0x7F	; 127
    463e:	02 c0       	rjmp	.+4      	; 0x4644 <pid_Controller+0x4e>
    4640:	c1 e0       	ldi	r28, 0x01	; 1
    4642:	d0 e8       	ldi	r29, 0x80	; 128
    4644:	44 27       	eor	r20, r20
    4646:	37 fd       	sbrc	r19, 7
    4648:	40 95       	com	r20
    464a:	54 2f       	mov	r21, r20
    464c:	82 81       	ldd	r24, Z+2	; 0x02
    464e:	93 81       	ldd	r25, Z+3	; 0x03
    4650:	a4 81       	ldd	r26, Z+4	; 0x04
    4652:	b5 81       	ldd	r27, Z+5	; 0x05
    4654:	28 0f       	add	r18, r24
    4656:	39 1f       	adc	r19, r25
    4658:	4a 1f       	adc	r20, r26
    465a:	5b 1f       	adc	r21, r27
    465c:	86 85       	ldd	r24, Z+14	; 0x0e
    465e:	97 85       	ldd	r25, Z+15	; 0x0f
    4660:	a0 89       	ldd	r26, Z+16	; 0x10
    4662:	b1 89       	ldd	r27, Z+17	; 0x11
    4664:	82 17       	cp	r24, r18
    4666:	93 07       	cpc	r25, r19
    4668:	a4 07       	cpc	r26, r20
    466a:	b5 07       	cpc	r27, r21
    466c:	5c f4       	brge	.+22     	; 0x4684 <pid_Controller+0x8e>
    466e:	82 83       	std	Z+2, r24	; 0x02
    4670:	93 83       	std	Z+3, r25	; 0x03
    4672:	a4 83       	std	Z+4, r26	; 0x04
    4674:	b5 83       	std	Z+5, r27	; 0x05
    4676:	cc 24       	eor	r12, r12
    4678:	ca 94       	dec	r12
    467a:	dc 2c       	mov	r13, r12
    467c:	ec 2c       	mov	r14, r12
    467e:	9f e3       	ldi	r25, 0x3F	; 63
    4680:	f9 2e       	mov	r15, r25
    4682:	21 c0       	rjmp	.+66     	; 0x46c6 <pid_Controller+0xd0>
    4684:	b0 95       	com	r27
    4686:	a0 95       	com	r26
    4688:	90 95       	com	r25
    468a:	81 95       	neg	r24
    468c:	9f 4f       	sbci	r25, 0xFF	; 255
    468e:	af 4f       	sbci	r26, 0xFF	; 255
    4690:	bf 4f       	sbci	r27, 0xFF	; 255
    4692:	28 17       	cp	r18, r24
    4694:	39 07       	cpc	r19, r25
    4696:	4a 07       	cpc	r20, r26
    4698:	5b 07       	cpc	r21, r27
    469a:	5c f4       	brge	.+22     	; 0x46b2 <pid_Controller+0xbc>
    469c:	82 83       	std	Z+2, r24	; 0x02
    469e:	93 83       	std	Z+3, r25	; 0x03
    46a0:	a4 83       	std	Z+4, r26	; 0x04
    46a2:	b5 83       	std	Z+5, r27	; 0x05
    46a4:	cc 24       	eor	r12, r12
    46a6:	c3 94       	inc	r12
    46a8:	d1 2c       	mov	r13, r1
    46aa:	e1 2c       	mov	r14, r1
    46ac:	80 ec       	ldi	r24, 0xC0	; 192
    46ae:	f8 2e       	mov	r15, r24
    46b0:	0a c0       	rjmp	.+20     	; 0x46c6 <pid_Controller+0xd0>
    46b2:	22 83       	std	Z+2, r18	; 0x02
    46b4:	33 83       	std	Z+3, r19	; 0x03
    46b6:	44 83       	std	Z+4, r20	; 0x04
    46b8:	55 83       	std	Z+5, r21	; 0x05
    46ba:	a0 85       	ldd	r26, Z+8	; 0x08
    46bc:	b1 85       	ldd	r27, Z+9	; 0x09
    46be:	0e 94 f7 2e 	call	0x5dee	; 0x5dee <__mulshisi3>
    46c2:	6b 01       	movw	r12, r22
    46c4:	7c 01       	movw	r14, r24
    46c6:	80 81       	ld	r24, Z
    46c8:	91 81       	ldd	r25, Z+1	; 0x01
    46ca:	80 1b       	sub	r24, r16
    46cc:	91 0b       	sbc	r25, r17
    46ce:	a2 85       	ldd	r26, Z+10	; 0x0a
    46d0:	b3 85       	ldd	r27, Z+11	; 0x0b
    46d2:	8a 9f       	mul	r24, r26
    46d4:	90 01       	movw	r18, r0
    46d6:	8b 9f       	mul	r24, r27
    46d8:	30 0d       	add	r19, r0
    46da:	9a 9f       	mul	r25, r26
    46dc:	30 0d       	add	r19, r0
    46de:	11 24       	eor	r1, r1
    46e0:	11 83       	std	Z+1, r17	; 0x01
    46e2:	00 83       	st	Z, r16
    46e4:	be 01       	movw	r22, r28
    46e6:	88 27       	eor	r24, r24
    46e8:	77 fd       	sbrc	r23, 7
    46ea:	80 95       	com	r24
    46ec:	98 2f       	mov	r25, r24
    46ee:	6c 0d       	add	r22, r12
    46f0:	7d 1d       	adc	r23, r13
    46f2:	8e 1d       	adc	r24, r14
    46f4:	9f 1d       	adc	r25, r15
    46f6:	89 01       	movw	r16, r18
    46f8:	22 27       	eor	r18, r18
    46fa:	17 fd       	sbrc	r17, 7
    46fc:	20 95       	com	r18
    46fe:	32 2f       	mov	r19, r18
    4700:	60 0f       	add	r22, r16
    4702:	71 1f       	adc	r23, r17
    4704:	82 1f       	adc	r24, r18
    4706:	93 1f       	adc	r25, r19
    4708:	20 e8       	ldi	r18, 0x80	; 128
    470a:	30 e0       	ldi	r19, 0x00	; 0
    470c:	40 e0       	ldi	r20, 0x00	; 0
    470e:	50 e0       	ldi	r21, 0x00	; 0
    4710:	0e 94 1f 2f 	call	0x5e3e	; 0x5e3e <__divmodsi4>
    4714:	21 30       	cpi	r18, 0x01	; 1
    4716:	80 e8       	ldi	r24, 0x80	; 128
    4718:	38 07       	cpc	r19, r24
    471a:	8f ef       	ldi	r24, 0xFF	; 255
    471c:	48 07       	cpc	r20, r24
    471e:	58 07       	cpc	r21, r24
    4720:	24 f4       	brge	.+8      	; 0x472a <pid_Controller+0x134>
    4722:	21 e0       	ldi	r18, 0x01	; 1
    4724:	30 e8       	ldi	r19, 0x80	; 128
    4726:	4f ef       	ldi	r20, 0xFF	; 255
    4728:	5f ef       	ldi	r21, 0xFF	; 255
    472a:	da 01       	movw	r26, r20
    472c:	c9 01       	movw	r24, r18
    472e:	81 15       	cp	r24, r1
    4730:	20 e8       	ldi	r18, 0x80	; 128
    4732:	92 07       	cpc	r25, r18
    4734:	a1 05       	cpc	r26, r1
    4736:	b1 05       	cpc	r27, r1
    4738:	24 f0       	brlt	.+8      	; 0x4742 <pid_Controller+0x14c>
    473a:	8f ef       	ldi	r24, 0xFF	; 255
    473c:	9f e7       	ldi	r25, 0x7F	; 127
    473e:	a0 e0       	ldi	r26, 0x00	; 0
    4740:	b0 e0       	ldi	r27, 0x00	; 0
    4742:	df 91       	pop	r29
    4744:	cf 91       	pop	r28
    4746:	1f 91       	pop	r17
    4748:	0f 91       	pop	r16
    474a:	ff 90       	pop	r15
    474c:	ef 90       	pop	r14
    474e:	df 90       	pop	r13
    4750:	cf 90       	pop	r12
    4752:	08 95       	ret

00004754 <autoProgram>:
    4754:	cf 92       	push	r12
    4756:	df 92       	push	r13
    4758:	ef 92       	push	r14
    475a:	ff 92       	push	r15
    475c:	0f 93       	push	r16
    475e:	1f 93       	push	r17
    4760:	cf 93       	push	r28
    4762:	df 93       	push	r29
    4764:	0e 94 6b 1e 	call	0x3cd6	; 0x3cd6 <GetHH>
    4768:	8c 01       	movw	r16, r24
    476a:	0e 94 77 1e 	call	0x3cee	; 0x3cee <GetMM>
    476e:	24 e6       	ldi	r18, 0x64	; 100
    4770:	20 9f       	mul	r18, r16
    4772:	e0 01       	movw	r28, r0
    4774:	21 9f       	mul	r18, r17
    4776:	d0 0d       	add	r29, r0
    4778:	11 24       	eor	r1, r1
    477a:	c8 0f       	add	r28, r24
    477c:	d9 1f       	adc	r29, r25
    477e:	0e 94 86 1e 	call	0x3d0c	; 0x3d0c <GetDoW>
    4782:	88 0f       	add	r24, r24
    4784:	99 1f       	adc	r25, r25
    4786:	8f 5d       	subi	r24, 0xDF	; 223
    4788:	9d 4f       	sbci	r25, 0xFD	; 253
    478a:	fc 01       	movw	r30, r24
    478c:	e5 90       	lpm	r14, Z+
    478e:	f4 90       	lpm	r15, Z
    4790:	0e 94 86 1e 	call	0x3d0c	; 0x3d0c <GetDoW>
    4794:	88 0f       	add	r24, r24
    4796:	99 1f       	adc	r25, r25
    4798:	8d 5e       	subi	r24, 0xED	; 237
    479a:	9d 4f       	sbci	r25, 0xFD	; 253
    479c:	fc 01       	movw	r30, r24
    479e:	05 91       	lpm	r16, Z+
    47a0:	14 91       	lpm	r17, Z
    47a2:	0e 94 86 1e 	call	0x3d0c	; 0x3d0c <GetDoW>
    47a6:	88 0f       	add	r24, r24
    47a8:	99 1f       	adc	r25, r25
    47aa:	8b 5f       	subi	r24, 0xFB	; 251
    47ac:	9d 4f       	sbci	r25, 0xFD	; 253
    47ae:	fc 01       	movw	r30, r24
    47b0:	c5 90       	lpm	r12, Z+
    47b2:	d4 90       	lpm	r13, Z
    47b4:	0e 94 86 1e 	call	0x3d0c	; 0x3d0c <GetDoW>
    47b8:	88 0f       	add	r24, r24
    47ba:	99 1f       	adc	r25, r25
    47bc:	89 50       	subi	r24, 0x09	; 9
    47be:	9e 4f       	sbci	r25, 0xFE	; 254
    47c0:	fc 01       	movw	r30, r24
    47c2:	85 91       	lpm	r24, Z+
    47c4:	94 91       	lpm	r25, Z
    47c6:	ec 16       	cp	r14, r28
    47c8:	fd 06       	cpc	r15, r29
    47ca:	18 f4       	brcc	.+6      	; 0x47d2 <autoProgram+0x7e>
    47cc:	c0 17       	cp	r28, r16
    47ce:	d1 07       	cpc	r29, r17
    47d0:	30 f0       	brcs	.+12     	; 0x47de <autoProgram+0x8a>
    47d2:	cc 16       	cp	r12, r28
    47d4:	dd 06       	cpc	r13, r29
    47d6:	38 f4       	brcc	.+14     	; 0x47e6 <autoProgram+0x92>
    47d8:	c8 17       	cp	r28, r24
    47da:	d9 07       	cpc	r29, r25
    47dc:	20 f4       	brcc	.+8      	; 0x47e6 <autoProgram+0x92>
    47de:	81 e0       	ldi	r24, 0x01	; 1
    47e0:	80 93 16 02 	sts	0x0216, r24
    47e4:	02 c0       	rjmp	.+4      	; 0x47ea <autoProgram+0x96>
    47e6:	10 92 16 02 	sts	0x0216, r1
    47ea:	df 91       	pop	r29
    47ec:	cf 91       	pop	r28
    47ee:	1f 91       	pop	r17
    47f0:	0f 91       	pop	r16
    47f2:	ff 90       	pop	r15
    47f4:	ef 90       	pop	r14
    47f6:	df 90       	pop	r13
    47f8:	cf 90       	pop	r12
    47fa:	08 95       	ret

000047fc <LEDfunction>:
    47fc:	80 91 69 03 	lds	r24, 0x0369
    4800:	81 11       	cpse	r24, r1
    4802:	03 c0       	rjmp	.+6      	; 0x480a <LEDfunction+0xe>
    4804:	41 98       	cbi	0x08, 1	; 8
    4806:	42 9a       	sbi	0x08, 2	; 8
    4808:	0c c0       	rjmp	.+24     	; 0x4822 <LEDfunction+0x26>
    480a:	80 91 66 03 	lds	r24, 0x0366
    480e:	81 11       	cpse	r24, r1
    4810:	03 c0       	rjmp	.+6      	; 0x4818 <LEDfunction+0x1c>
    4812:	41 9a       	sbi	0x08, 1	; 8
    4814:	42 98       	cbi	0x08, 2	; 8
    4816:	05 c0       	rjmp	.+10     	; 0x4822 <LEDfunction+0x26>
    4818:	88 b1       	in	r24, 0x08	; 8
    481a:	94 e0       	ldi	r25, 0x04	; 4
    481c:	89 27       	eor	r24, r25
    481e:	88 b9       	out	0x08, r24	; 8
    4820:	41 9a       	sbi	0x08, 1	; 8
    4822:	80 91 6a 03 	lds	r24, 0x036A
    4826:	81 30       	cpi	r24, 0x01	; 1
    4828:	21 f4       	brne	.+8      	; 0x4832 <LEDfunction+0x36>
    482a:	98 b1       	in	r25, 0x08	; 8
    482c:	98 27       	eor	r25, r24
    482e:	98 b9       	out	0x08, r25	; 8
    4830:	08 95       	ret
    4832:	81 11       	cpse	r24, r1
    4834:	01 c0       	rjmp	.+2      	; 0x4838 <LEDfunction+0x3c>
    4836:	40 9a       	sbi	0x08, 0	; 8
    4838:	08 95       	ret

0000483a <ButtonAction>:
    483a:	0e 94 66 22 	call	0x44cc	; 0x44cc <checkStruct>
    483e:	4b 99       	sbic	0x09, 3	; 9
    4840:	06 c0       	rjmp	.+12     	; 0x484e <ButtonAction+0x14>
    4842:	80 91 fb 01 	lds	r24, 0x01FB
    4846:	8f 5f       	subi	r24, 0xFF	; 255
    4848:	80 93 fb 01 	sts	0x01FB, r24
    484c:	03 c0       	rjmp	.+6      	; 0x4854 <ButtonAction+0x1a>
    484e:	4b 99       	sbic	0x09, 3	; 9
    4850:	10 92 fb 01 	sts	0x01FB, r1
    4854:	80 91 fb 01 	lds	r24, 0x01FB
    4858:	85 30       	cpi	r24, 0x05	; 5
    485a:	10 f0       	brcs	.+4      	; 0x4860 <ButtonAction+0x26>
    485c:	0c 94 a4 1e 	jmp	0x3d48	; 0x3d48 <setTimeLoop>
    4860:	08 95       	ret

00004862 <commandToRelay>:
    4862:	80 91 6a 03 	lds	r24, 0x036A
    4866:	88 23       	and	r24, r24
    4868:	11 f0       	breq	.+4      	; 0x486e <commandToRelay+0xc>
    486a:	5e 98       	cbi	0x0b, 6	; 11
    486c:	08 95       	ret
    486e:	5e 9a       	sbi	0x0b, 6	; 11
    4870:	08 95       	ret

00004872 <u8g_setup>:
    4872:	8f e1       	ldi	r24, 0x1F	; 31
    4874:	9e e4       	ldi	r25, 0x4E	; 78
    4876:	01 97       	sbiw	r24, 0x01	; 1
    4878:	f1 f7       	brne	.-4      	; 0x4876 <u8g_setup+0x4>
    487a:	00 c0       	rjmp	.+0      	; 0x487c <u8g_setup+0xa>
    487c:	00 00       	nop
    487e:	40 e1       	ldi	r20, 0x10	; 16
    4880:	63 e0       	ldi	r22, 0x03	; 3
    4882:	71 e0       	ldi	r23, 0x01	; 1
    4884:	85 e0       	ldi	r24, 0x05	; 5
    4886:	93 e0       	ldi	r25, 0x03	; 3
    4888:	0c 94 d3 2b 	jmp	0x57a6	; 0x57a6 <u8g_InitI2C>

0000488c <main>:
    488c:	0e 94 b2 1d 	call	0x3b64	; 0x3b64 <LoadCALvars>
    4890:	39 9a       	sbi	0x07, 1	; 7
    4892:	3a 9a       	sbi	0x07, 2	; 7
    4894:	38 9a       	sbi	0x07, 0	; 7
    4896:	2f ef       	ldi	r18, 0xFF	; 255
    4898:	89 ef       	ldi	r24, 0xF9	; 249
    489a:	90 e0       	ldi	r25, 0x00	; 0
    489c:	21 50       	subi	r18, 0x01	; 1
    489e:	80 40       	sbci	r24, 0x00	; 0
    48a0:	90 40       	sbci	r25, 0x00	; 0
    48a2:	e1 f7       	brne	.-8      	; 0x489c <main+0x10>
    48a4:	00 c0       	rjmp	.+0      	; 0x48a6 <main+0x1a>
    48a6:	00 00       	nop
    48a8:	0e 94 8e 21 	call	0x431c	; 0x431c <initTempSens>
    48ac:	0e 94 f1 21 	call	0x43e2	; 0x43e2 <initRtrEncoder>
    48b0:	0e 94 39 24 	call	0x4872	; 0x4872 <u8g_setup>
    48b4:	0e 94 4f 1c 	call	0x389e	; 0x389e <timerInit>
    48b8:	20 e0       	ldi	r18, 0x00	; 0
    48ba:	30 e0       	ldi	r19, 0x00	; 0
    48bc:	40 e0       	ldi	r20, 0x00	; 0
    48be:	53 e4       	ldi	r21, 0x43	; 67
    48c0:	60 91 f5 02 	lds	r22, 0x02F5
    48c4:	70 91 f6 02 	lds	r23, 0x02F6
    48c8:	80 91 f7 02 	lds	r24, 0x02F7
    48cc:	90 91 f8 02 	lds	r25, 0x02F8
    48d0:	0e 94 25 30 	call	0x604a	; 0x604a <__mulsf3>
    48d4:	0e 94 8e 2f 	call	0x5f1c	; 0x5f1c <__fixsfsi>
    48d8:	4b 01       	movw	r8, r22
    48da:	5c 01       	movw	r10, r24
    48dc:	20 e0       	ldi	r18, 0x00	; 0
    48de:	30 e0       	ldi	r19, 0x00	; 0
    48e0:	40 e0       	ldi	r20, 0x00	; 0
    48e2:	53 e4       	ldi	r21, 0x43	; 67
    48e4:	60 91 f1 02 	lds	r22, 0x02F1
    48e8:	70 91 f2 02 	lds	r23, 0x02F2
    48ec:	80 91 f3 02 	lds	r24, 0x02F3
    48f0:	90 91 f4 02 	lds	r25, 0x02F4
    48f4:	0e 94 25 30 	call	0x604a	; 0x604a <__mulsf3>
    48f8:	0e 94 8e 2f 	call	0x5f1c	; 0x5f1c <__fixsfsi>
    48fc:	6b 01       	movw	r12, r22
    48fe:	7c 01       	movw	r14, r24
    4900:	20 e0       	ldi	r18, 0x00	; 0
    4902:	30 e0       	ldi	r19, 0x00	; 0
    4904:	40 e0       	ldi	r20, 0x00	; 0
    4906:	53 e4       	ldi	r21, 0x43	; 67
    4908:	60 91 ed 02 	lds	r22, 0x02ED
    490c:	70 91 ee 02 	lds	r23, 0x02EE
    4910:	80 91 ef 02 	lds	r24, 0x02EF
    4914:	90 91 f0 02 	lds	r25, 0x02F0
    4918:	0e 94 25 30 	call	0x604a	; 0x604a <__mulsf3>
    491c:	0e 94 8e 2f 	call	0x5f1c	; 0x5f1c <__fixsfsi>
    4920:	dc 01       	movw	r26, r24
    4922:	cb 01       	movw	r24, r22
    4924:	2e e6       	ldi	r18, 0x6E	; 110
    4926:	33 e0       	ldi	r19, 0x03	; 3
    4928:	a4 01       	movw	r20, r8
    492a:	b6 01       	movw	r22, r12
    492c:	0e 94 ce 22 	call	0x459c	; 0x459c <pid_Init>
    4930:	20 e0       	ldi	r18, 0x00	; 0
    4932:	30 e0       	ldi	r19, 0x00	; 0
    4934:	40 e0       	ldi	r20, 0x00	; 0
    4936:	53 e4       	ldi	r21, 0x43	; 67
    4938:	60 91 01 03 	lds	r22, 0x0301
    493c:	70 91 02 03 	lds	r23, 0x0302
    4940:	80 91 03 03 	lds	r24, 0x0303
    4944:	90 91 04 03 	lds	r25, 0x0304
    4948:	0e 94 25 30 	call	0x604a	; 0x604a <__mulsf3>
    494c:	0e 94 8e 2f 	call	0x5f1c	; 0x5f1c <__fixsfsi>
    4950:	4b 01       	movw	r8, r22
    4952:	5c 01       	movw	r10, r24
    4954:	20 e0       	ldi	r18, 0x00	; 0
    4956:	30 e0       	ldi	r19, 0x00	; 0
    4958:	40 e0       	ldi	r20, 0x00	; 0
    495a:	53 e4       	ldi	r21, 0x43	; 67
    495c:	60 91 fd 02 	lds	r22, 0x02FD
    4960:	70 91 fe 02 	lds	r23, 0x02FE
    4964:	80 91 ff 02 	lds	r24, 0x02FF
    4968:	90 91 00 03 	lds	r25, 0x0300
    496c:	0e 94 25 30 	call	0x604a	; 0x604a <__mulsf3>
    4970:	0e 94 8e 2f 	call	0x5f1c	; 0x5f1c <__fixsfsi>
    4974:	6b 01       	movw	r12, r22
    4976:	7c 01       	movw	r14, r24
    4978:	20 e0       	ldi	r18, 0x00	; 0
    497a:	30 e0       	ldi	r19, 0x00	; 0
    497c:	40 e0       	ldi	r20, 0x00	; 0
    497e:	53 e4       	ldi	r21, 0x43	; 67
    4980:	60 91 f9 02 	lds	r22, 0x02F9
    4984:	70 91 fa 02 	lds	r23, 0x02FA
    4988:	80 91 fb 02 	lds	r24, 0x02FB
    498c:	90 91 fc 02 	lds	r25, 0x02FC
    4990:	0e 94 25 30 	call	0x604a	; 0x604a <__mulsf3>
    4994:	0e 94 8e 2f 	call	0x5f1c	; 0x5f1c <__fixsfsi>
    4998:	dc 01       	movw	r26, r24
    499a:	cb 01       	movw	r24, r22
    499c:	23 e5       	ldi	r18, 0x53	; 83
    499e:	33 e0       	ldi	r19, 0x03	; 3
    49a0:	a4 01       	movw	r20, r8
    49a2:	b6 01       	movw	r22, r12
    49a4:	0e 94 ce 22 	call	0x459c	; 0x459c <pid_Init>
    49a8:	0e 94 96 1c 	call	0x392c	; 0x392c <initScheduler>
    49ac:	48 e0       	ldi	r20, 0x08	; 8
    49ae:	50 e0       	ldi	r21, 0x00	; 0
    49b0:	6d e1       	ldi	r22, 0x1D	; 29
    49b2:	74 e2       	ldi	r23, 0x24	; 36
    49b4:	81 e0       	ldi	r24, 0x01	; 1
    49b6:	0e 94 aa 1c 	call	0x3954	; 0x3954 <addTask>
    49ba:	47 e0       	ldi	r20, 0x07	; 7
    49bc:	50 e0       	ldi	r21, 0x00	; 0
    49be:	60 e0       	ldi	r22, 0x00	; 0
    49c0:	77 e2       	ldi	r23, 0x27	; 39
    49c2:	82 e0       	ldi	r24, 0x02	; 2
    49c4:	0e 94 aa 1c 	call	0x3954	; 0x3954 <addTask>
    49c8:	4a e0       	ldi	r20, 0x0A	; 10
    49ca:	50 e0       	ldi	r21, 0x00	; 0
    49cc:	68 eb       	ldi	r22, 0xB8	; 184
    49ce:	70 e2       	ldi	r23, 0x20	; 32
    49d0:	83 e0       	ldi	r24, 0x03	; 3
    49d2:	0e 94 aa 1c 	call	0x3954	; 0x3954 <addTask>
    49d6:	4f e0       	ldi	r20, 0x0F	; 15
    49d8:	50 e0       	ldi	r21, 0x00	; 0
    49da:	6c ea       	ldi	r22, 0xAC	; 172
    49dc:	76 e2       	ldi	r23, 0x26	; 38
    49de:	84 e0       	ldi	r24, 0x04	; 4
    49e0:	0e 94 aa 1c 	call	0x3954	; 0x3954 <addTask>
    49e4:	45 e0       	ldi	r20, 0x05	; 5
    49e6:	50 e0       	ldi	r21, 0x00	; 0
    49e8:	6e ef       	ldi	r22, 0xFE	; 254
    49ea:	73 e2       	ldi	r23, 0x23	; 35
    49ec:	85 e0       	ldi	r24, 0x05	; 5
    49ee:	0e 94 aa 1c 	call	0x3954	; 0x3954 <addTask>
    49f2:	48 e5       	ldi	r20, 0x58	; 88
    49f4:	52 e0       	ldi	r21, 0x02	; 2
    49f6:	6a ea       	ldi	r22, 0xAA	; 170
    49f8:	73 e2       	ldi	r23, 0x23	; 35
    49fa:	86 e0       	ldi	r24, 0x06	; 6
    49fc:	0e 94 aa 1c 	call	0x3954	; 0x3954 <addTask>
    4a00:	40 e9       	ldi	r20, 0x90	; 144
    4a02:	51 e0       	ldi	r21, 0x01	; 1
    4a04:	61 e3       	ldi	r22, 0x31	; 49
    4a06:	74 e2       	ldi	r23, 0x24	; 36
    4a08:	87 e0       	ldi	r24, 0x07	; 7
    4a0a:	0e 94 aa 1c 	call	0x3954	; 0x3954 <addTask>
    4a0e:	78 94       	sei
    4a10:	0e 94 c7 1c 	call	0x398e	; 0x398e <dispatchTasks>
    4a14:	fd cf       	rjmp	.-6      	; 0x4a10 <main+0x184>

00004a16 <draw>:
    4a16:	0f 93       	push	r16
    4a18:	1f 93       	push	r17
    4a1a:	cf 93       	push	r28
    4a1c:	df 93       	push	r29
    4a1e:	80 91 66 03 	lds	r24, 0x0366
    4a22:	88 23       	and	r24, r24
    4a24:	19 f0       	breq	.+6      	; 0x4a2c <draw+0x16>
    4a26:	00 e0       	ldi	r16, 0x00	; 0
    4a28:	11 e0       	ldi	r17, 0x01	; 1
    4a2a:	02 c0       	rjmp	.+4      	; 0x4a30 <draw+0x1a>
    4a2c:	01 e0       	ldi	r16, 0x01	; 1
    4a2e:	10 e0       	ldi	r17, 0x00	; 0
    4a30:	80 91 69 03 	lds	r24, 0x0369
    4a34:	1f 92       	push	r1
    4a36:	8f 93       	push	r24
    4a38:	81 ea       	ldi	r24, 0xA1	; 161
    4a3a:	92 e0       	ldi	r25, 0x02	; 2
    4a3c:	9f 93       	push	r25
    4a3e:	8f 93       	push	r24
    4a40:	c0 e8       	ldi	r28, 0x80	; 128
    4a42:	d3 e0       	ldi	r29, 0x03	; 3
    4a44:	df 93       	push	r29
    4a46:	cf 93       	push	r28
    4a48:	0e 94 1b 31 	call	0x6236	; 0x6236 <sprintf_P>
    4a4c:	69 e9       	ldi	r22, 0x99	; 153
    4a4e:	73 e2       	ldi	r23, 0x23	; 35
    4a50:	85 e0       	ldi	r24, 0x05	; 5
    4a52:	93 e0       	ldi	r25, 0x03	; 3
    4a54:	0e 94 ac 2a 	call	0x5558	; 0x5558 <u8g_SetFont>
    4a58:	9e 01       	movw	r18, r28
    4a5a:	4a e0       	ldi	r20, 0x0A	; 10
    4a5c:	60 e0       	ldi	r22, 0x00	; 0
    4a5e:	85 e0       	ldi	r24, 0x05	; 5
    4a60:	93 e0       	ldi	r25, 0x03	; 3
    4a62:	0e 94 27 2a 	call	0x544e	; 0x544e <u8g_DrawStr>
    4a66:	1f 92       	push	r1
    4a68:	0f 93       	push	r16
    4a6a:	89 e9       	ldi	r24, 0x99	; 153
    4a6c:	92 e0       	ldi	r25, 0x02	; 2
    4a6e:	9f 93       	push	r25
    4a70:	8f 93       	push	r24
    4a72:	df 93       	push	r29
    4a74:	cf 93       	push	r28
    4a76:	0e 94 1b 31 	call	0x6236	; 0x6236 <sprintf_P>
    4a7a:	9e 01       	movw	r18, r28
    4a7c:	44 e1       	ldi	r20, 0x14	; 20
    4a7e:	60 e0       	ldi	r22, 0x00	; 0
    4a80:	85 e0       	ldi	r24, 0x05	; 5
    4a82:	93 e0       	ldi	r25, 0x03	; 3
    4a84:	0e 94 27 2a 	call	0x544e	; 0x544e <u8g_DrawStr>
    4a88:	1f 92       	push	r1
    4a8a:	1f 93       	push	r17
    4a8c:	81 e9       	ldi	r24, 0x91	; 145
    4a8e:	92 e0       	ldi	r25, 0x02	; 2
    4a90:	9f 93       	push	r25
    4a92:	8f 93       	push	r24
    4a94:	df 93       	push	r29
    4a96:	cf 93       	push	r28
    4a98:	0e 94 1b 31 	call	0x6236	; 0x6236 <sprintf_P>
    4a9c:	9e 01       	movw	r18, r28
    4a9e:	4e e1       	ldi	r20, 0x1E	; 30
    4aa0:	60 e0       	ldi	r22, 0x00	; 0
    4aa2:	85 e0       	ldi	r24, 0x05	; 5
    4aa4:	93 e0       	ldi	r25, 0x03	; 3
    4aa6:	0e 94 27 2a 	call	0x544e	; 0x544e <u8g_DrawStr>
    4aaa:	80 91 16 02 	lds	r24, 0x0216
    4aae:	1f 92       	push	r1
    4ab0:	8f 93       	push	r24
    4ab2:	87 e8       	ldi	r24, 0x87	; 135
    4ab4:	92 e0       	ldi	r25, 0x02	; 2
    4ab6:	9f 93       	push	r25
    4ab8:	8f 93       	push	r24
    4aba:	df 93       	push	r29
    4abc:	cf 93       	push	r28
    4abe:	0e 94 1b 31 	call	0x6236	; 0x6236 <sprintf_P>
    4ac2:	9e 01       	movw	r18, r28
    4ac4:	48 e2       	ldi	r20, 0x28	; 40
    4ac6:	60 e0       	ldi	r22, 0x00	; 0
    4ac8:	85 e0       	ldi	r24, 0x05	; 5
    4aca:	93 e0       	ldi	r25, 0x03	; 3
    4acc:	0e 94 27 2a 	call	0x544e	; 0x544e <u8g_DrawStr>
    4ad0:	80 91 52 03 	lds	r24, 0x0352
    4ad4:	8f 93       	push	r24
    4ad6:	80 91 51 03 	lds	r24, 0x0351
    4ada:	8f 93       	push	r24
    4adc:	8d e7       	ldi	r24, 0x7D	; 125
    4ade:	92 e0       	ldi	r25, 0x02	; 2
    4ae0:	9f 93       	push	r25
    4ae2:	8f 93       	push	r24
    4ae4:	df 93       	push	r29
    4ae6:	cf 93       	push	r28
    4ae8:	0e 94 1b 31 	call	0x6236	; 0x6236 <sprintf_P>
    4aec:	9e 01       	movw	r18, r28
    4aee:	42 e3       	ldi	r20, 0x32	; 50
    4af0:	60 e0       	ldi	r22, 0x00	; 0
    4af2:	85 e0       	ldi	r24, 0x05	; 5
    4af4:	93 e0       	ldi	r25, 0x03	; 3
    4af6:	0e 94 27 2a 	call	0x544e	; 0x544e <u8g_DrawStr>
    4afa:	80 91 50 03 	lds	r24, 0x0350
    4afe:	8f 93       	push	r24
    4b00:	80 91 4f 03 	lds	r24, 0x034F
    4b04:	8f 93       	push	r24
    4b06:	83 e7       	ldi	r24, 0x73	; 115
    4b08:	92 e0       	ldi	r25, 0x02	; 2
    4b0a:	9f 93       	push	r25
    4b0c:	8f 93       	push	r24
    4b0e:	df 93       	push	r29
    4b10:	cf 93       	push	r28
    4b12:	0e 94 1b 31 	call	0x6236	; 0x6236 <sprintf_P>
    4b16:	8d b7       	in	r24, 0x3d	; 61
    4b18:	9e b7       	in	r25, 0x3e	; 62
    4b1a:	84 96       	adiw	r24, 0x24	; 36
    4b1c:	0f b6       	in	r0, 0x3f	; 63
    4b1e:	f8 94       	cli
    4b20:	9e bf       	out	0x3e, r25	; 62
    4b22:	0f be       	out	0x3f, r0	; 63
    4b24:	8d bf       	out	0x3d, r24	; 61
    4b26:	9e 01       	movw	r18, r28
    4b28:	4c e3       	ldi	r20, 0x3C	; 60
    4b2a:	60 e0       	ldi	r22, 0x00	; 0
    4b2c:	85 e0       	ldi	r24, 0x05	; 5
    4b2e:	93 e0       	ldi	r25, 0x03	; 3
    4b30:	0e 94 27 2a 	call	0x544e	; 0x544e <u8g_DrawStr>
    4b34:	80 91 6a 03 	lds	r24, 0x036A
    4b38:	1f 92       	push	r1
    4b3a:	8f 93       	push	r24
    4b3c:	89 e6       	ldi	r24, 0x69	; 105
    4b3e:	92 e0       	ldi	r25, 0x02	; 2
    4b40:	9f 93       	push	r25
    4b42:	8f 93       	push	r24
    4b44:	df 93       	push	r29
    4b46:	cf 93       	push	r28
    4b48:	0e 94 1b 31 	call	0x6236	; 0x6236 <sprintf_P>
    4b4c:	9e 01       	movw	r18, r28
    4b4e:	4a e0       	ldi	r20, 0x0A	; 10
    4b50:	61 e4       	ldi	r22, 0x41	; 65
    4b52:	85 e0       	ldi	r24, 0x05	; 5
    4b54:	93 e0       	ldi	r25, 0x03	; 3
    4b56:	0e 94 27 2a 	call	0x544e	; 0x544e <u8g_DrawStr>
    4b5a:	0e 94 86 1e 	call	0x3d0c	; 0x3d0c <GetDoW>
    4b5e:	9f 93       	push	r25
    4b60:	8f 93       	push	r24
    4b62:	81 e6       	ldi	r24, 0x61	; 97
    4b64:	92 e0       	ldi	r25, 0x02	; 2
    4b66:	9f 93       	push	r25
    4b68:	8f 93       	push	r24
    4b6a:	df 93       	push	r29
    4b6c:	cf 93       	push	r28
    4b6e:	0e 94 1b 31 	call	0x6236	; 0x6236 <sprintf_P>
    4b72:	9e 01       	movw	r18, r28
    4b74:	44 e1       	ldi	r20, 0x14	; 20
    4b76:	61 e4       	ldi	r22, 0x41	; 65
    4b78:	85 e0       	ldi	r24, 0x05	; 5
    4b7a:	93 e0       	ldi	r25, 0x03	; 3
    4b7c:	0e 94 27 2a 	call	0x544e	; 0x544e <u8g_DrawStr>
    4b80:	0e 94 93 21 	call	0x4326	; 0x4326 <actualTemperature>
    4b84:	0e 94 88 30 	call	0x6110	; 0x6110 <round>
    4b88:	0e 94 8e 2f 	call	0x5f1c	; 0x5f1c <__fixsfsi>
    4b8c:	7f 93       	push	r23
    4b8e:	6f 93       	push	r22
    4b90:	87 e5       	ldi	r24, 0x57	; 87
    4b92:	92 e0       	ldi	r25, 0x02	; 2
    4b94:	9f 93       	push	r25
    4b96:	8f 93       	push	r24
    4b98:	df 93       	push	r29
    4b9a:	cf 93       	push	r28
    4b9c:	0e 94 1b 31 	call	0x6236	; 0x6236 <sprintf_P>
    4ba0:	9e 01       	movw	r18, r28
    4ba2:	4e e1       	ldi	r20, 0x1E	; 30
    4ba4:	61 e4       	ldi	r22, 0x41	; 65
    4ba6:	85 e0       	ldi	r24, 0x05	; 5
    4ba8:	93 e0       	ldi	r25, 0x03	; 3
    4baa:	0e 94 27 2a 	call	0x544e	; 0x544e <u8g_DrawStr>
    4bae:	20 91 02 01 	lds	r18, 0x0102
    4bb2:	82 2f       	mov	r24, r18
    4bb4:	99 27       	eor	r25, r25
    4bb6:	87 fd       	sbrc	r24, 7
    4bb8:	90 95       	com	r25
    4bba:	9f 93       	push	r25
    4bbc:	2f 93       	push	r18
    4bbe:	8c e4       	ldi	r24, 0x4C	; 76
    4bc0:	92 e0       	ldi	r25, 0x02	; 2
    4bc2:	9f 93       	push	r25
    4bc4:	8f 93       	push	r24
    4bc6:	df 93       	push	r29
    4bc8:	cf 93       	push	r28
    4bca:	0e 94 1b 31 	call	0x6236	; 0x6236 <sprintf_P>
    4bce:	8d b7       	in	r24, 0x3d	; 61
    4bd0:	9e b7       	in	r25, 0x3e	; 62
    4bd2:	48 96       	adiw	r24, 0x18	; 24
    4bd4:	0f b6       	in	r0, 0x3f	; 63
    4bd6:	f8 94       	cli
    4bd8:	9e bf       	out	0x3e, r25	; 62
    4bda:	0f be       	out	0x3f, r0	; 63
    4bdc:	8d bf       	out	0x3d, r24	; 61
    4bde:	9e 01       	movw	r18, r28
    4be0:	48 e2       	ldi	r20, 0x28	; 40
    4be2:	6d e3       	ldi	r22, 0x3D	; 61
    4be4:	85 e0       	ldi	r24, 0x05	; 5
    4be6:	93 e0       	ldi	r25, 0x03	; 3
    4be8:	df 91       	pop	r29
    4bea:	cf 91       	pop	r28
    4bec:	1f 91       	pop	r17
    4bee:	0f 91       	pop	r16
    4bf0:	0c 94 27 2a 	jmp	0x544e	; 0x544e <u8g_DrawStr>

00004bf4 <showDebugInfo>:
    4bf4:	85 e0       	ldi	r24, 0x05	; 5
    4bf6:	93 e0       	ldi	r25, 0x03	; 3
    4bf8:	0e 94 f0 2b 	call	0x57e0	; 0x57e0 <u8g_FirstPage>
    4bfc:	0e 94 0b 25 	call	0x4a16	; 0x4a16 <draw>
    4c00:	85 e0       	ldi	r24, 0x05	; 5
    4c02:	93 e0       	ldi	r25, 0x03	; 3
    4c04:	0e 94 f5 2b 	call	0x57ea	; 0x57ea <u8g_NextPage>
    4c08:	81 11       	cpse	r24, r1
    4c0a:	f8 cf       	rjmp	.-16     	; 0x4bfc <showDebugInfo+0x8>
    4c0c:	08 95       	ret

00004c0e <drawTime>:
    4c0e:	cf 92       	push	r12
    4c10:	df 92       	push	r13
    4c12:	ef 92       	push	r14
    4c14:	ff 92       	push	r15
    4c16:	0f 93       	push	r16
    4c18:	cf 93       	push	r28
    4c1a:	df 93       	push	r29
    4c1c:	69 e0       	ldi	r22, 0x09	; 9
    4c1e:	7e e1       	ldi	r23, 0x1E	; 30
    4c20:	85 e0       	ldi	r24, 0x05	; 5
    4c22:	93 e0       	ldi	r25, 0x03	; 3
    4c24:	0e 94 ac 2a 	call	0x5558	; 0x5558 <u8g_SetFont>
    4c28:	0e 94 77 1e 	call	0x3cee	; 0x3cee <GetMM>
    4c2c:	ec 01       	movw	r28, r24
    4c2e:	0e 94 6b 1e 	call	0x3cd6	; 0x3cd6 <GetHH>
    4c32:	df 93       	push	r29
    4c34:	cf 93       	push	r28
    4c36:	9f 93       	push	r25
    4c38:	8f 93       	push	r24
    4c3a:	84 e4       	ldi	r24, 0x44	; 68
    4c3c:	92 e0       	ldi	r25, 0x02	; 2
    4c3e:	9f 93       	push	r25
    4c40:	8f 93       	push	r24
    4c42:	c0 e8       	ldi	r28, 0x80	; 128
    4c44:	d3 e0       	ldi	r29, 0x03	; 3
    4c46:	df 93       	push	r29
    4c48:	cf 93       	push	r28
    4c4a:	0e 94 1b 31 	call	0x6236	; 0x6236 <sprintf_P>
    4c4e:	9e 01       	movw	r18, r28
    4c50:	4f e0       	ldi	r20, 0x0F	; 15
    4c52:	60 e4       	ldi	r22, 0x40	; 64
    4c54:	85 e0       	ldi	r24, 0x05	; 5
    4c56:	93 e0       	ldi	r25, 0x03	; 3
    4c58:	0e 94 27 2a 	call	0x544e	; 0x544e <u8g_DrawStr>
    4c5c:	69 e0       	ldi	r22, 0x09	; 9
    4c5e:	7e e1       	ldi	r23, 0x1E	; 30
    4c60:	85 e0       	ldi	r24, 0x05	; 5
    4c62:	93 e0       	ldi	r25, 0x03	; 3
    4c64:	0e 94 ac 2a 	call	0x5558	; 0x5558 <u8g_SetFont>
    4c68:	0e 94 94 1e 	call	0x3d28	; 0x3d28 <GetYY>
    4c6c:	7c 01       	movw	r14, r24
    4c6e:	0e 94 8d 1e 	call	0x3d1a	; 0x3d1a <GetMonth>
    4c72:	d8 2e       	mov	r13, r24
    4c74:	c9 2e       	mov	r12, r25
    4c76:	0e 94 7f 1e 	call	0x3cfe	; 0x3cfe <GetDD>
    4c7a:	97 01       	movw	r18, r14
    4c7c:	20 53       	subi	r18, 0x30	; 48
    4c7e:	38 4f       	sbci	r19, 0xF8	; 248
    4c80:	3f 93       	push	r19
    4c82:	2f 93       	push	r18
    4c84:	cf 92       	push	r12
    4c86:	df 92       	push	r13
    4c88:	9f 93       	push	r25
    4c8a:	8f 93       	push	r24
    4c8c:	86 e3       	ldi	r24, 0x36	; 54
    4c8e:	92 e0       	ldi	r25, 0x02	; 2
    4c90:	9f 93       	push	r25
    4c92:	8f 93       	push	r24
    4c94:	df 93       	push	r29
    4c96:	cf 93       	push	r28
    4c98:	0e 94 1b 31 	call	0x6236	; 0x6236 <sprintf_P>
    4c9c:	9e 01       	movw	r18, r28
    4c9e:	4e e3       	ldi	r20, 0x3E	; 62
    4ca0:	6f e0       	ldi	r22, 0x0F	; 15
    4ca2:	85 e0       	ldi	r24, 0x05	; 5
    4ca4:	93 e0       	ldi	r25, 0x03	; 3
    4ca6:	0e 94 27 2a 	call	0x544e	; 0x544e <u8g_DrawStr>
    4caa:	0e 94 93 21 	call	0x4326	; 0x4326 <actualTemperature>
    4cae:	0e 94 88 30 	call	0x6110	; 0x6110 <round>
    4cb2:	6b 01       	movw	r12, r22
    4cb4:	7c 01       	movw	r14, r24
    4cb6:	63 ee       	ldi	r22, 0xE3	; 227
    4cb8:	7a e2       	ldi	r23, 0x2A	; 42
    4cba:	85 e0       	ldi	r24, 0x05	; 5
    4cbc:	93 e0       	ldi	r25, 0x03	; 3
    4cbe:	0e 94 ac 2a 	call	0x5558	; 0x5558 <u8g_SetFont>
    4cc2:	c7 01       	movw	r24, r14
    4cc4:	b6 01       	movw	r22, r12
    4cc6:	0e 94 8e 2f 	call	0x5f1c	; 0x5f1c <__fixsfsi>
    4cca:	7f 93       	push	r23
    4ccc:	6f 93       	push	r22
    4cce:	81 e3       	ldi	r24, 0x31	; 49
    4cd0:	92 e0       	ldi	r25, 0x02	; 2
    4cd2:	9f 93       	push	r25
    4cd4:	8f 93       	push	r24
    4cd6:	df 93       	push	r29
    4cd8:	cf 93       	push	r28
    4cda:	0e 94 1b 31 	call	0x6236	; 0x6236 <sprintf_P>
    4cde:	9e 01       	movw	r18, r28
    4ce0:	49 e2       	ldi	r20, 0x29	; 41
    4ce2:	67 e3       	ldi	r22, 0x37	; 55
    4ce4:	85 e0       	ldi	r24, 0x05	; 5
    4ce6:	93 e0       	ldi	r25, 0x03	; 3
    4ce8:	0e 94 27 2a 	call	0x544e	; 0x544e <u8g_DrawStr>
    4cec:	8d b7       	in	r24, 0x3d	; 61
    4cee:	9e b7       	in	r25, 0x3e	; 62
    4cf0:	48 96       	adiw	r24, 0x18	; 24
    4cf2:	0f b6       	in	r0, 0x3f	; 63
    4cf4:	f8 94       	cli
    4cf6:	9e bf       	out	0x3e, r25	; 62
    4cf8:	0f be       	out	0x3f, r0	; 63
    4cfa:	8d bf       	out	0x3d, r24	; 61
    4cfc:	80 91 65 03 	lds	r24, 0x0365
    4d00:	88 23       	and	r24, r24
    4d02:	49 f0       	breq	.+18     	; 0x4d16 <drawTime+0x108>
    4d04:	97 e2       	ldi	r25, 0x27	; 39
    4d06:	e9 2e       	mov	r14, r25
    4d08:	91 e0       	ldi	r25, 0x01	; 1
    4d0a:	f9 2e       	mov	r15, r25
    4d0c:	0a e2       	ldi	r16, 0x2A	; 42
    4d0e:	24 e2       	ldi	r18, 0x24	; 36
    4d10:	45 e0       	ldi	r20, 0x05	; 5
    4d12:	65 e0       	ldi	r22, 0x05	; 5
    4d14:	08 c0       	rjmp	.+16     	; 0x4d26 <drawTime+0x118>
    4d16:	87 e9       	ldi	r24, 0x97	; 151
    4d18:	e8 2e       	mov	r14, r24
    4d1a:	80 e0       	ldi	r24, 0x00	; 0
    4d1c:	f8 2e       	mov	r15, r24
    4d1e:	04 e2       	ldi	r16, 0x24	; 36
    4d20:	20 e2       	ldi	r18, 0x20	; 32
    4d22:	4a e0       	ldi	r20, 0x0A	; 10
    4d24:	6a e0       	ldi	r22, 0x0A	; 10
    4d26:	85 e0       	ldi	r24, 0x05	; 5
    4d28:	93 e0       	ldi	r25, 0x03	; 3
    4d2a:	0e 94 18 27 	call	0x4e30	; 0x4e30 <u8g_DrawXBMP>
    4d2e:	df 91       	pop	r29
    4d30:	cf 91       	pop	r28
    4d32:	0f 91       	pop	r16
    4d34:	ff 90       	pop	r15
    4d36:	ef 90       	pop	r14
    4d38:	df 90       	pop	r13
    4d3a:	cf 90       	pop	r12
    4d3c:	08 95       	ret

00004d3e <showTimeNow>:
    4d3e:	85 e0       	ldi	r24, 0x05	; 5
    4d40:	93 e0       	ldi	r25, 0x03	; 3
    4d42:	0e 94 f0 2b 	call	0x57e0	; 0x57e0 <u8g_FirstPage>
    4d46:	0e 94 07 26 	call	0x4c0e	; 0x4c0e <drawTime>
    4d4a:	85 e0       	ldi	r24, 0x05	; 5
    4d4c:	93 e0       	ldi	r25, 0x03	; 3
    4d4e:	0e 94 f5 2b 	call	0x57ea	; 0x57ea <u8g_NextPage>
    4d52:	81 11       	cpse	r24, r1
    4d54:	f8 cf       	rjmp	.-16     	; 0x4d46 <showTimeNow+0x8>
    4d56:	08 95       	ret

00004d58 <displayController>:
    4d58:	80 91 17 02 	lds	r24, 0x0217
    4d5c:	8f 5f       	subi	r24, 0xFF	; 255
    4d5e:	80 93 17 02 	sts	0x0217, r24
    4d62:	81 30       	cpi	r24, 0x01	; 1
    4d64:	29 f0       	breq	.+10     	; 0x4d70 <displayController+0x18>
    4d66:	83 30       	cpi	r24, 0x03	; 3
    4d68:	29 f4       	brne	.+10     	; 0x4d74 <displayController+0x1c>
    4d6a:	0e 94 9f 26 	call	0x4d3e	; 0x4d3e <showTimeNow>
    4d6e:	02 c0       	rjmp	.+4      	; 0x4d74 <displayController+0x1c>
    4d70:	0e 94 fa 25 	call	0x4bf4	; 0x4bf4 <showDebugInfo>
    4d74:	80 91 17 02 	lds	r24, 0x0217
    4d78:	84 30       	cpi	r24, 0x04	; 4
    4d7a:	11 f4       	brne	.+4      	; 0x4d80 <displayController+0x28>
    4d7c:	10 92 17 02 	sts	0x0217, r1
    4d80:	08 95       	ret

00004d82 <drawSollTemp>:
    4d82:	0f 93       	push	r16
    4d84:	cf 93       	push	r28
    4d86:	c0 91 02 01 	lds	r28, 0x0102
    4d8a:	0f e0       	ldi	r16, 0x0F	; 15
    4d8c:	21 e1       	ldi	r18, 0x11	; 17
    4d8e:	40 e2       	ldi	r20, 0x20	; 32
    4d90:	60 e4       	ldi	r22, 0x40	; 64
    4d92:	85 e0       	ldi	r24, 0x05	; 5
    4d94:	93 e0       	ldi	r25, 0x03	; 3
    4d96:	0e 94 39 28 	call	0x5072	; 0x5072 <u8g_DrawCircle>
    4d9a:	6f ee       	ldi	r22, 0xEF	; 239
    4d9c:	72 e0       	ldi	r23, 0x02	; 2
    4d9e:	85 e0       	ldi	r24, 0x05	; 5
    4da0:	93 e0       	ldi	r25, 0x03	; 3
    4da2:	0e 94 ac 2a 	call	0x5558	; 0x5558 <u8g_SetFont>
    4da6:	80 91 02 01 	lds	r24, 0x0102
    4daa:	87 fd       	sbrc	r24, 7
    4dac:	c1 95       	neg	r28
    4dae:	1f 92       	push	r1
    4db0:	cf 93       	push	r28
    4db2:	8d ee       	ldi	r24, 0xED	; 237
    4db4:	91 e0       	ldi	r25, 0x01	; 1
    4db6:	9f 93       	push	r25
    4db8:	8f 93       	push	r24
    4dba:	80 e8       	ldi	r24, 0x80	; 128
    4dbc:	93 e0       	ldi	r25, 0x03	; 3
    4dbe:	9f 93       	push	r25
    4dc0:	8f 93       	push	r24
    4dc2:	0e 94 f9 30 	call	0x61f2	; 0x61f2 <sprintf>
    4dc6:	0f 90       	pop	r0
    4dc8:	0f 90       	pop	r0
    4dca:	0f 90       	pop	r0
    4dcc:	0f 90       	pop	r0
    4dce:	0f 90       	pop	r0
    4dd0:	0f 90       	pop	r0
    4dd2:	20 e8       	ldi	r18, 0x80	; 128
    4dd4:	33 e0       	ldi	r19, 0x03	; 3
    4dd6:	47 e2       	ldi	r20, 0x27	; 39
    4dd8:	63 e3       	ldi	r22, 0x33	; 51
    4dda:	85 e0       	ldi	r24, 0x05	; 5
    4ddc:	93 e0       	ldi	r25, 0x03	; 3
    4dde:	cf 91       	pop	r28
    4de0:	0f 91       	pop	r16
    4de2:	0c 94 27 2a 	jmp	0x544e	; 0x544e <u8g_DrawStr>

00004de6 <showSolltemp>:
    4de6:	85 e0       	ldi	r24, 0x05	; 5
    4de8:	93 e0       	ldi	r25, 0x03	; 3
    4dea:	0e 94 f0 2b 	call	0x57e0	; 0x57e0 <u8g_FirstPage>
    4dee:	0e 94 c1 26 	call	0x4d82	; 0x4d82 <drawSollTemp>
    4df2:	85 e0       	ldi	r24, 0x05	; 5
    4df4:	93 e0       	ldi	r25, 0x03	; 3
    4df6:	0e 94 f5 2b 	call	0x57ea	; 0x57ea <u8g_NextPage>
    4dfa:	81 11       	cpse	r24, r1
    4dfc:	f8 cf       	rjmp	.-16     	; 0x4dee <showSolltemp+0x8>
    4dfe:	08 95       	ret

00004e00 <updateSollTemperature>:
    4e00:	80 91 f6 01 	lds	r24, 0x01F6
    4e04:	88 23       	and	r24, r24
    4e06:	89 f0       	breq	.+34     	; 0x4e2a <updateSollTemperature+0x2a>
    4e08:	80 91 69 03 	lds	r24, 0x0369
    4e0c:	88 23       	and	r24, r24
    4e0e:	69 f0       	breq	.+26     	; 0x4e2a <updateSollTemperature+0x2a>
    4e10:	90 91 f7 01 	lds	r25, 0x01F7
    4e14:	80 91 02 01 	lds	r24, 0x0102
    4e18:	99 23       	and	r25, r25
    4e1a:	11 f0       	breq	.+4      	; 0x4e20 <updateSollTemperature+0x20>
    4e1c:	81 50       	subi	r24, 0x01	; 1
    4e1e:	01 c0       	rjmp	.+2      	; 0x4e22 <updateSollTemperature+0x22>
    4e20:	8f 5f       	subi	r24, 0xFF	; 255
    4e22:	80 93 02 01 	sts	0x0102, r24
    4e26:	0e 94 f3 26 	call	0x4de6	; 0x4de6 <showSolltemp>
    4e2a:	10 92 f6 01 	sts	0x01F6, r1
    4e2e:	08 95       	ret

00004e30 <u8g_DrawXBMP>:
    4e30:	2f 92       	push	r2
    4e32:	3f 92       	push	r3
    4e34:	4f 92       	push	r4
    4e36:	5f 92       	push	r5
    4e38:	6f 92       	push	r6
    4e3a:	7f 92       	push	r7
    4e3c:	8f 92       	push	r8
    4e3e:	9f 92       	push	r9
    4e40:	af 92       	push	r10
    4e42:	bf 92       	push	r11
    4e44:	cf 92       	push	r12
    4e46:	df 92       	push	r13
    4e48:	ef 92       	push	r14
    4e4a:	ff 92       	push	r15
    4e4c:	0f 93       	push	r16
    4e4e:	1f 93       	push	r17
    4e50:	cf 93       	push	r28
    4e52:	df 93       	push	r29
    4e54:	00 d0       	rcall	.+0      	; 0x4e56 <u8g_DrawXBMP+0x26>
    4e56:	1f 92       	push	r1
    4e58:	cd b7       	in	r28, 0x3d	; 61
    4e5a:	de b7       	in	r29, 0x3e	; 62
    4e5c:	9b 83       	std	Y+3, r25	; 0x03
    4e5e:	8a 83       	std	Y+2, r24	; 0x02
    4e60:	36 2e       	mov	r3, r22
    4e62:	14 2f       	mov	r17, r20
    4e64:	32 2f       	mov	r19, r18
    4e66:	70 2e       	mov	r7, r16
    4e68:	39 83       	std	Y+1, r19	; 0x01
    4e6a:	0e 94 60 28 	call	0x50c0	; 0x50c0 <u8g_IsBBXIntersection>
    4e6e:	39 81       	ldd	r19, Y+1	; 0x01
    4e70:	88 23       	and	r24, r24
    4e72:	09 f4       	brne	.+2      	; 0x4e76 <u8g_DrawXBMP+0x46>
    4e74:	4f c0       	rjmp	.+158    	; 0x4f14 <u8g_DrawXBMP+0xe4>
    4e76:	87 e0       	ldi	r24, 0x07	; 7
    4e78:	83 0f       	add	r24, r19
    4e7a:	86 95       	lsr	r24
    4e7c:	86 95       	lsr	r24
    4e7e:	86 95       	lsr	r24
    4e80:	a8 2e       	mov	r10, r24
    4e82:	b1 2c       	mov	r11, r1
    4e84:	71 0e       	add	r7, r17
    4e86:	27 e0       	ldi	r18, 0x07	; 7
    4e88:	32 0e       	add	r3, r18
    4e8a:	83 2f       	mov	r24, r19
    4e8c:	86 95       	lsr	r24
    4e8e:	86 95       	lsr	r24
    4e90:	86 95       	lsr	r24
    4e92:	88 2e       	mov	r8, r24
    4e94:	91 2c       	mov	r9, r1
    4e96:	e3 2d       	mov	r30, r3
    4e98:	98 e0       	ldi	r25, 0x08	; 8
    4e9a:	89 9f       	mul	r24, r25
    4e9c:	e0 0d       	add	r30, r0
    4e9e:	11 24       	eor	r1, r1
    4ea0:	49 ef       	ldi	r20, 0xF9	; 249
    4ea2:	64 2e       	mov	r6, r20
    4ea4:	6e 0e       	add	r6, r30
    4ea6:	53 2c       	mov	r5, r3
    4ea8:	53 0e       	add	r5, r19
    4eaa:	37 70       	andi	r19, 0x07	; 7
    4eac:	43 2e       	mov	r4, r19
    4eae:	59 ef       	ldi	r21, 0xF9	; 249
    4eb0:	25 2e       	mov	r2, r21
    4eb2:	23 0e       	add	r2, r19
    4eb4:	2e 0e       	add	r2, r30
    4eb6:	17 15       	cp	r17, r7
    4eb8:	69 f1       	breq	.+90     	; 0x4f14 <u8g_DrawXBMP+0xe4>
    4eba:	67 01       	movw	r12, r14
    4ebc:	33 2d       	mov	r19, r3
    4ebe:	85 2d       	mov	r24, r5
    4ec0:	83 1b       	sub	r24, r19
    4ec2:	88 30       	cpi	r24, 0x08	; 8
    4ec4:	80 f0       	brcs	.+32     	; 0x4ee6 <u8g_DrawXBMP+0xb6>
    4ec6:	f6 01       	movw	r30, r12
    4ec8:	04 91       	lpm	r16, Z
    4eca:	22 e0       	ldi	r18, 0x02	; 2
    4ecc:	41 2f       	mov	r20, r17
    4ece:	63 2f       	mov	r22, r19
    4ed0:	8a 81       	ldd	r24, Y+2	; 0x02
    4ed2:	9b 81       	ldd	r25, Y+3	; 0x03
    4ed4:	39 83       	std	Y+1, r19	; 0x01
    4ed6:	0e 94 0c 2c 	call	0x5818	; 0x5818 <u8g_Draw8Pixel>
    4eda:	ff ef       	ldi	r31, 0xFF	; 255
    4edc:	cf 1a       	sub	r12, r31
    4ede:	df 0a       	sbc	r13, r31
    4ee0:	39 81       	ldd	r19, Y+1	; 0x01
    4ee2:	38 5f       	subi	r19, 0xF8	; 248
    4ee4:	ec cf       	rjmp	.-40     	; 0x4ebe <u8g_DrawXBMP+0x8e>
    4ee6:	f7 01       	movw	r30, r14
    4ee8:	e8 0d       	add	r30, r8
    4eea:	f9 1d       	adc	r31, r9
    4eec:	44 20       	and	r4, r4
    4eee:	71 f0       	breq	.+28     	; 0x4f0c <u8g_DrawXBMP+0xdc>
    4ef0:	c4 90       	lpm	r12, Z
    4ef2:	d6 2c       	mov	r13, r6
    4ef4:	c0 fe       	sbrs	r12, 0
    4ef6:	06 c0       	rjmp	.+12     	; 0x4f04 <u8g_DrawXBMP+0xd4>
    4ef8:	41 2f       	mov	r20, r17
    4efa:	6d 2d       	mov	r22, r13
    4efc:	8a 81       	ldd	r24, Y+2	; 0x02
    4efe:	9b 81       	ldd	r25, Y+3	; 0x03
    4f00:	0e 94 04 2c 	call	0x5808	; 0x5808 <u8g_DrawPixel>
    4f04:	d3 94       	inc	r13
    4f06:	c6 94       	lsr	r12
    4f08:	2d 10       	cpse	r2, r13
    4f0a:	f4 cf       	rjmp	.-24     	; 0x4ef4 <u8g_DrawXBMP+0xc4>
    4f0c:	ea 0c       	add	r14, r10
    4f0e:	fb 1c       	adc	r15, r11
    4f10:	1f 5f       	subi	r17, 0xFF	; 255
    4f12:	d1 cf       	rjmp	.-94     	; 0x4eb6 <u8g_DrawXBMP+0x86>
    4f14:	0f 90       	pop	r0
    4f16:	0f 90       	pop	r0
    4f18:	0f 90       	pop	r0
    4f1a:	df 91       	pop	r29
    4f1c:	cf 91       	pop	r28
    4f1e:	1f 91       	pop	r17
    4f20:	0f 91       	pop	r16
    4f22:	ff 90       	pop	r15
    4f24:	ef 90       	pop	r14
    4f26:	df 90       	pop	r13
    4f28:	cf 90       	pop	r12
    4f2a:	bf 90       	pop	r11
    4f2c:	af 90       	pop	r10
    4f2e:	9f 90       	pop	r9
    4f30:	8f 90       	pop	r8
    4f32:	7f 90       	pop	r7
    4f34:	6f 90       	pop	r6
    4f36:	5f 90       	pop	r5
    4f38:	4f 90       	pop	r4
    4f3a:	3f 90       	pop	r3
    4f3c:	2f 90       	pop	r2
    4f3e:	08 95       	ret

00004f40 <u8g_draw_circle_section>:
    4f40:	df 92       	push	r13
    4f42:	ef 92       	push	r14
    4f44:	ff 92       	push	r15
    4f46:	0f 93       	push	r16
    4f48:	1f 93       	push	r17
    4f4a:	cf 93       	push	r28
    4f4c:	df 93       	push	r29
    4f4e:	ec 01       	movw	r28, r24
    4f50:	d6 2e       	mov	r13, r22
    4f52:	14 2f       	mov	r17, r20
    4f54:	f2 2e       	mov	r15, r18
    4f56:	e0 fe       	sbrs	r14, 0
    4f58:	0d c0       	rjmp	.+26     	; 0x4f74 <u8g_draw_circle_section+0x34>
    4f5a:	40 2f       	mov	r20, r16
    4f5c:	41 1b       	sub	r20, r17
    4f5e:	62 2f       	mov	r22, r18
    4f60:	6d 0d       	add	r22, r13
    4f62:	0e 94 04 2c 	call	0x5808	; 0x5808 <u8g_DrawPixel>
    4f66:	40 2f       	mov	r20, r16
    4f68:	4d 19       	sub	r20, r13
    4f6a:	61 2f       	mov	r22, r17
    4f6c:	6f 0d       	add	r22, r15
    4f6e:	ce 01       	movw	r24, r28
    4f70:	0e 94 04 2c 	call	0x5808	; 0x5808 <u8g_DrawPixel>
    4f74:	e1 fe       	sbrs	r14, 1
    4f76:	0e c0       	rjmp	.+28     	; 0x4f94 <u8g_draw_circle_section+0x54>
    4f78:	40 2f       	mov	r20, r16
    4f7a:	41 1b       	sub	r20, r17
    4f7c:	6f 2d       	mov	r22, r15
    4f7e:	6d 19       	sub	r22, r13
    4f80:	ce 01       	movw	r24, r28
    4f82:	0e 94 04 2c 	call	0x5808	; 0x5808 <u8g_DrawPixel>
    4f86:	40 2f       	mov	r20, r16
    4f88:	4d 19       	sub	r20, r13
    4f8a:	6f 2d       	mov	r22, r15
    4f8c:	61 1b       	sub	r22, r17
    4f8e:	ce 01       	movw	r24, r28
    4f90:	0e 94 04 2c 	call	0x5808	; 0x5808 <u8g_DrawPixel>
    4f94:	e3 fe       	sbrs	r14, 3
    4f96:	0e c0       	rjmp	.+28     	; 0x4fb4 <u8g_draw_circle_section+0x74>
    4f98:	40 2f       	mov	r20, r16
    4f9a:	41 0f       	add	r20, r17
    4f9c:	6f 2d       	mov	r22, r15
    4f9e:	6d 0d       	add	r22, r13
    4fa0:	ce 01       	movw	r24, r28
    4fa2:	0e 94 04 2c 	call	0x5808	; 0x5808 <u8g_DrawPixel>
    4fa6:	40 2f       	mov	r20, r16
    4fa8:	4d 0d       	add	r20, r13
    4faa:	61 2f       	mov	r22, r17
    4fac:	6f 0d       	add	r22, r15
    4fae:	ce 01       	movw	r24, r28
    4fb0:	0e 94 04 2c 	call	0x5808	; 0x5808 <u8g_DrawPixel>
    4fb4:	e2 fe       	sbrs	r14, 2
    4fb6:	15 c0       	rjmp	.+42     	; 0x4fe2 <u8g_draw_circle_section+0xa2>
    4fb8:	40 2f       	mov	r20, r16
    4fba:	41 0f       	add	r20, r17
    4fbc:	6f 2d       	mov	r22, r15
    4fbe:	6d 19       	sub	r22, r13
    4fc0:	ce 01       	movw	r24, r28
    4fc2:	0e 94 04 2c 	call	0x5808	; 0x5808 <u8g_DrawPixel>
    4fc6:	40 2f       	mov	r20, r16
    4fc8:	4d 0d       	add	r20, r13
    4fca:	6f 2d       	mov	r22, r15
    4fcc:	61 1b       	sub	r22, r17
    4fce:	ce 01       	movw	r24, r28
    4fd0:	df 91       	pop	r29
    4fd2:	cf 91       	pop	r28
    4fd4:	1f 91       	pop	r17
    4fd6:	0f 91       	pop	r16
    4fd8:	ff 90       	pop	r15
    4fda:	ef 90       	pop	r14
    4fdc:	df 90       	pop	r13
    4fde:	0c 94 04 2c 	jmp	0x5808	; 0x5808 <u8g_DrawPixel>
    4fe2:	df 91       	pop	r29
    4fe4:	cf 91       	pop	r28
    4fe6:	1f 91       	pop	r17
    4fe8:	0f 91       	pop	r16
    4fea:	ff 90       	pop	r15
    4fec:	ef 90       	pop	r14
    4fee:	df 90       	pop	r13
    4ff0:	08 95       	ret

00004ff2 <u8g_draw_circle>:
    4ff2:	9f 92       	push	r9
    4ff4:	af 92       	push	r10
    4ff6:	bf 92       	push	r11
    4ff8:	cf 92       	push	r12
    4ffa:	df 92       	push	r13
    4ffc:	ef 92       	push	r14
    4ffe:	ff 92       	push	r15
    5000:	0f 93       	push	r16
    5002:	1f 93       	push	r17
    5004:	cf 93       	push	r28
    5006:	df 93       	push	r29
    5008:	ec 01       	movw	r28, r24
    500a:	b6 2e       	mov	r11, r22
    500c:	a4 2e       	mov	r10, r20
    500e:	12 2f       	mov	r17, r18
    5010:	90 2e       	mov	r9, r16
    5012:	ff 24       	eor	r15, r15
    5014:	f3 94       	inc	r15
    5016:	f2 1a       	sub	r15, r18
    5018:	c2 2e       	mov	r12, r18
    501a:	c1 94       	neg	r12
    501c:	cc 0c       	add	r12, r12
    501e:	e0 2e       	mov	r14, r16
    5020:	04 2f       	mov	r16, r20
    5022:	26 2f       	mov	r18, r22
    5024:	41 2f       	mov	r20, r17
    5026:	60 e0       	ldi	r22, 0x00	; 0
    5028:	0e 94 a0 27 	call	0x4f40	; 0x4f40 <u8g_draw_circle_section>
    502c:	d1 2c       	mov	r13, r1
    502e:	d1 16       	cp	r13, r17
    5030:	a0 f4       	brcc	.+40     	; 0x505a <u8g_draw_circle+0x68>
    5032:	f7 fc       	sbrc	r15, 7
    5034:	04 c0       	rjmp	.+8      	; 0x503e <u8g_draw_circle+0x4c>
    5036:	11 50       	subi	r17, 0x01	; 1
    5038:	c3 94       	inc	r12
    503a:	c3 94       	inc	r12
    503c:	fc 0c       	add	r15, r12
    503e:	d3 94       	inc	r13
    5040:	8d 2d       	mov	r24, r13
    5042:	88 0f       	add	r24, r24
    5044:	8f 5f       	subi	r24, 0xFF	; 255
    5046:	f8 0e       	add	r15, r24
    5048:	e9 2c       	mov	r14, r9
    504a:	0a 2d       	mov	r16, r10
    504c:	2b 2d       	mov	r18, r11
    504e:	41 2f       	mov	r20, r17
    5050:	6d 2d       	mov	r22, r13
    5052:	ce 01       	movw	r24, r28
    5054:	0e 94 a0 27 	call	0x4f40	; 0x4f40 <u8g_draw_circle_section>
    5058:	ea cf       	rjmp	.-44     	; 0x502e <u8g_draw_circle+0x3c>
    505a:	df 91       	pop	r29
    505c:	cf 91       	pop	r28
    505e:	1f 91       	pop	r17
    5060:	0f 91       	pop	r16
    5062:	ff 90       	pop	r15
    5064:	ef 90       	pop	r14
    5066:	df 90       	pop	r13
    5068:	cf 90       	pop	r12
    506a:	bf 90       	pop	r11
    506c:	af 90       	pop	r10
    506e:	9f 90       	pop	r9
    5070:	08 95       	ret

00005072 <u8g_DrawCircle>:
    5072:	df 92       	push	r13
    5074:	ef 92       	push	r14
    5076:	ff 92       	push	r15
    5078:	0f 93       	push	r16
    507a:	1f 93       	push	r17
    507c:	cf 93       	push	r28
    507e:	df 93       	push	r29
    5080:	ec 01       	movw	r28, r24
    5082:	16 2f       	mov	r17, r22
    5084:	f4 2e       	mov	r15, r20
    5086:	e2 2e       	mov	r14, r18
    5088:	d0 2e       	mov	r13, r16
    508a:	81 e0       	ldi	r24, 0x01	; 1
    508c:	82 0f       	add	r24, r18
    508e:	28 2f       	mov	r18, r24
    5090:	22 0f       	add	r18, r18
    5092:	48 1b       	sub	r20, r24
    5094:	68 1b       	sub	r22, r24
    5096:	02 2f       	mov	r16, r18
    5098:	ce 01       	movw	r24, r28
    509a:	0e 94 60 28 	call	0x50c0	; 0x50c0 <u8g_IsBBXIntersection>
    509e:	88 23       	and	r24, r24
    50a0:	39 f0       	breq	.+14     	; 0x50b0 <u8g_DrawCircle+0x3e>
    50a2:	0d 2d       	mov	r16, r13
    50a4:	2e 2d       	mov	r18, r14
    50a6:	4f 2d       	mov	r20, r15
    50a8:	61 2f       	mov	r22, r17
    50aa:	ce 01       	movw	r24, r28
    50ac:	0e 94 f9 27 	call	0x4ff2	; 0x4ff2 <u8g_draw_circle>
    50b0:	df 91       	pop	r29
    50b2:	cf 91       	pop	r28
    50b4:	1f 91       	pop	r17
    50b6:	0f 91       	pop	r16
    50b8:	ff 90       	pop	r15
    50ba:	ef 90       	pop	r14
    50bc:	df 90       	pop	r13
    50be:	08 95       	ret

000050c0 <u8g_IsBBXIntersection>:
    50c0:	0f 93       	push	r16
    50c2:	fc 01       	movw	r30, r24
    50c4:	01 50       	subi	r16, 0x01	; 1
    50c6:	04 0f       	add	r16, r20
    50c8:	84 a9       	ldd	r24, Z+52	; 0x34
    50ca:	96 a9       	ldd	r25, Z+54	; 0x36
    50cc:	94 17       	cp	r25, r20
    50ce:	18 f0       	brcs	.+6      	; 0x50d6 <u8g_IsBBXIntersection+0x16>
    50d0:	08 17       	cp	r16, r24
    50d2:	28 f4       	brcc	.+10     	; 0x50de <u8g_IsBBXIntersection+0x1e>
    50d4:	02 c0       	rjmp	.+4      	; 0x50da <u8g_IsBBXIntersection+0x1a>
    50d6:	08 17       	cp	r16, r24
    50d8:	50 f0       	brcs	.+20     	; 0x50ee <u8g_IsBBXIntersection+0x2e>
    50da:	04 17       	cp	r16, r20
    50dc:	40 f4       	brcc	.+16     	; 0x50ee <u8g_IsBBXIntersection+0x2e>
    50de:	21 50       	subi	r18, 0x01	; 1
    50e0:	26 0f       	add	r18, r22
    50e2:	83 a9       	ldd	r24, Z+51	; 0x33
    50e4:	95 a9       	ldd	r25, Z+53	; 0x35
    50e6:	96 17       	cp	r25, r22
    50e8:	20 f4       	brcc	.+8      	; 0x50f2 <u8g_IsBBXIntersection+0x32>
    50ea:	28 17       	cp	r18, r24
    50ec:	20 f4       	brcc	.+8      	; 0x50f6 <u8g_IsBBXIntersection+0x36>
    50ee:	80 e0       	ldi	r24, 0x00	; 0
    50f0:	07 c0       	rjmp	.+14     	; 0x5100 <u8g_IsBBXIntersection+0x40>
    50f2:	28 17       	cp	r18, r24
    50f4:	20 f4       	brcc	.+8      	; 0x50fe <u8g_IsBBXIntersection+0x3e>
    50f6:	81 e0       	ldi	r24, 0x01	; 1
    50f8:	26 17       	cp	r18, r22
    50fa:	10 f0       	brcs	.+4      	; 0x5100 <u8g_IsBBXIntersection+0x40>
    50fc:	f8 cf       	rjmp	.-16     	; 0x50ee <u8g_IsBBXIntersection+0x2e>
    50fe:	81 e0       	ldi	r24, 0x01	; 1
    5100:	0f 91       	pop	r16
    5102:	08 95       	ret

00005104 <u8g_dev_ssd1306_128x64_fn>:
    5104:	bf 92       	push	r11
    5106:	cf 92       	push	r12
    5108:	df 92       	push	r13
    510a:	ef 92       	push	r14
    510c:	ff 92       	push	r15
    510e:	0f 93       	push	r16
    5110:	1f 93       	push	r17
    5112:	cf 93       	push	r28
    5114:	df 93       	push	r29
    5116:	8c 01       	movw	r16, r24
    5118:	eb 01       	movw	r28, r22
    511a:	b4 2e       	mov	r11, r20
    511c:	69 01       	movw	r12, r18
    511e:	80 e1       	ldi	r24, 0x10	; 16
    5120:	48 17       	cp	r20, r24
    5122:	b1 f1       	breq	.+108    	; 0x5190 <u8g_dev_ssd1306_128x64_fn+0x8c>
    5124:	84 17       	cp	r24, r20
    5126:	70 f0       	brcs	.+28     	; 0x5144 <u8g_dev_ssd1306_128x64_fn+0x40>
    5128:	ea e0       	ldi	r30, 0x0A	; 10
    512a:	4e 13       	cpse	r20, r30
    512c:	3c c0       	rjmp	.+120    	; 0x51a6 <u8g_dev_ssd1306_128x64_fn+0xa2>
    512e:	42 e0       	ldi	r20, 0x02	; 2
    5130:	c8 01       	movw	r24, r16
    5132:	0e 94 24 2d 	call	0x5a48	; 0x5a48 <u8g_InitCom>
    5136:	49 ec       	ldi	r20, 0xC9	; 201
    5138:	52 e0       	ldi	r21, 0x02	; 2
    513a:	be 01       	movw	r22, r28
    513c:	c8 01       	movw	r24, r16
    513e:	0e 94 63 2d 	call	0x5ac6	; 0x5ac6 <u8g_WriteEscSeqP>
    5142:	31 c0       	rjmp	.+98     	; 0x51a6 <u8g_dev_ssd1306_128x64_fn+0xa2>
    5144:	f1 e1       	ldi	r31, 0x11	; 17
    5146:	4f 17       	cp	r20, r31
    5148:	31 f1       	breq	.+76     	; 0x5196 <u8g_dev_ssd1306_128x64_fn+0x92>
    514a:	85 e1       	ldi	r24, 0x15	; 21
    514c:	48 13       	cpse	r20, r24
    514e:	2b c0       	rjmp	.+86     	; 0x51a6 <u8g_dev_ssd1306_128x64_fn+0xa2>
    5150:	ea 80       	ldd	r14, Y+2	; 0x02
    5152:	fb 80       	ldd	r15, Y+3	; 0x03
    5154:	41 ec       	ldi	r20, 0xC1	; 193
    5156:	52 e0       	ldi	r21, 0x02	; 2
    5158:	c8 01       	movw	r24, r16
    515a:	0e 94 63 2d 	call	0x5ac6	; 0x5ac6 <u8g_WriteEscSeqP>
    515e:	f7 01       	movw	r30, r14
    5160:	44 81       	ldd	r20, Z+4	; 0x04
    5162:	40 6b       	ori	r20, 0xB0	; 176
    5164:	be 01       	movw	r22, r28
    5166:	c8 01       	movw	r24, r16
    5168:	0e 94 53 2d 	call	0x5aa6	; 0x5aa6 <u8g_WriteByte>
    516c:	41 e0       	ldi	r20, 0x01	; 1
    516e:	be 01       	movw	r22, r28
    5170:	c8 01       	movw	r24, r16
    5172:	0e 94 4a 2d 	call	0x5a94	; 0x5a94 <u8g_SetAddress>
    5176:	ae 01       	movw	r20, r28
    5178:	b8 01       	movw	r22, r16
    517a:	c7 01       	movw	r24, r14
    517c:	0e 94 62 2c 	call	0x58c4	; 0x58c4 <u8g_pb_WriteBuffer>
    5180:	88 23       	and	r24, r24
    5182:	01 f1       	breq	.+64     	; 0x51c4 <u8g_dev_ssd1306_128x64_fn+0xc0>
    5184:	40 e0       	ldi	r20, 0x00	; 0
    5186:	be 01       	movw	r22, r28
    5188:	c8 01       	movw	r24, r16
    518a:	0e 94 2d 2d 	call	0x5a5a	; 0x5a5a <u8g_SetChipSelect>
    518e:	0b c0       	rjmp	.+22     	; 0x51a6 <u8g_dev_ssd1306_128x64_fn+0xa2>
    5190:	48 eb       	ldi	r20, 0xB8	; 184
    5192:	52 e0       	ldi	r21, 0x02	; 2
    5194:	02 c0       	rjmp	.+4      	; 0x519a <u8g_dev_ssd1306_128x64_fn+0x96>
    5196:	4d ea       	ldi	r20, 0xAD	; 173
    5198:	52 e0       	ldi	r21, 0x02	; 2
    519a:	be 01       	movw	r22, r28
    519c:	c8 01       	movw	r24, r16
    519e:	0e 94 63 2d 	call	0x5ac6	; 0x5ac6 <u8g_WriteEscSeqP>
    51a2:	81 e0       	ldi	r24, 0x01	; 1
    51a4:	10 c0       	rjmp	.+32     	; 0x51c6 <u8g_dev_ssd1306_128x64_fn+0xc2>
    51a6:	96 01       	movw	r18, r12
    51a8:	4b 2d       	mov	r20, r11
    51aa:	be 01       	movw	r22, r28
    51ac:	c8 01       	movw	r24, r16
    51ae:	df 91       	pop	r29
    51b0:	cf 91       	pop	r28
    51b2:	1f 91       	pop	r17
    51b4:	0f 91       	pop	r16
    51b6:	ff 90       	pop	r15
    51b8:	ef 90       	pop	r14
    51ba:	df 90       	pop	r13
    51bc:	cf 90       	pop	r12
    51be:	bf 90       	pop	r11
    51c0:	0c 94 da 2c 	jmp	0x59b4	; 0x59b4 <u8g_dev_pb8v1_base_fn>
    51c4:	80 e0       	ldi	r24, 0x00	; 0
    51c6:	df 91       	pop	r29
    51c8:	cf 91       	pop	r28
    51ca:	1f 91       	pop	r17
    51cc:	0f 91       	pop	r16
    51ce:	ff 90       	pop	r15
    51d0:	ef 90       	pop	r14
    51d2:	df 90       	pop	r13
    51d4:	cf 90       	pop	r12
    51d6:	bf 90       	pop	r11
    51d8:	08 95       	ret

000051da <u8g_font_get_word>:
    51da:	fc 01       	movw	r30, r24
    51dc:	e6 0f       	add	r30, r22
    51de:	f1 1d       	adc	r31, r1
    51e0:	84 91       	lpm	r24, Z
    51e2:	90 e0       	ldi	r25, 0x00	; 0
    51e4:	98 2f       	mov	r25, r24
    51e6:	88 27       	eor	r24, r24
    51e8:	31 96       	adiw	r30, 0x01	; 1
    51ea:	e4 91       	lpm	r30, Z
    51ec:	8e 0f       	add	r24, r30
    51ee:	91 1d       	adc	r25, r1
    51f0:	08 95       	ret

000051f2 <u8g_font_GetFormat>:
    51f2:	fc 01       	movw	r30, r24
    51f4:	84 91       	lpm	r24, Z
    51f6:	08 95       	ret

000051f8 <u8g_font_GetFontGlyphStructureSize>:
    51f8:	0e 94 f9 28 	call	0x51f2	; 0x51f2 <u8g_font_GetFormat>
    51fc:	88 23       	and	r24, r24
    51fe:	11 f0       	breq	.+4      	; 0x5204 <u8g_font_GetFontGlyphStructureSize+0xc>
    5200:	82 30       	cpi	r24, 0x02	; 2
    5202:	11 f4       	brne	.+4      	; 0x5208 <u8g_font_GetFontGlyphStructureSize+0x10>
    5204:	86 e0       	ldi	r24, 0x06	; 6
    5206:	08 95       	ret
    5208:	83 e0       	ldi	r24, 0x03	; 3
    520a:	08 95       	ret

0000520c <u8g_font_calc_vref_font>:
    520c:	80 e0       	ldi	r24, 0x00	; 0
    520e:	08 95       	ret

00005210 <u8g_font_GetEncoding65Pos>:
    5210:	66 e0       	ldi	r22, 0x06	; 6
    5212:	0c 94 ed 28 	jmp	0x51da	; 0x51da <u8g_font_get_word>

00005216 <u8g_font_GetEncoding97Pos>:
    5216:	68 e0       	ldi	r22, 0x08	; 8
    5218:	0c 94 ed 28 	jmp	0x51da	; 0x51da <u8g_font_get_word>

0000521c <u8g_font_GetFontStartEncoding>:
    521c:	0a 96       	adiw	r24, 0x0a	; 10
    521e:	fc 01       	movw	r30, r24
    5220:	84 91       	lpm	r24, Z
    5222:	08 95       	ret

00005224 <u8g_font_GetFontEndEncoding>:
    5224:	0b 96       	adiw	r24, 0x0b	; 11
    5226:	fc 01       	movw	r30, r24
    5228:	84 91       	lpm	r24, Z
    522a:	08 95       	ret

0000522c <u8g_GetGlyph>:
    522c:	af 92       	push	r10
    522e:	bf 92       	push	r11
    5230:	cf 92       	push	r12
    5232:	df 92       	push	r13
    5234:	ef 92       	push	r14
    5236:	ff 92       	push	r15
    5238:	0f 93       	push	r16
    523a:	1f 93       	push	r17
    523c:	cf 93       	push	r28
    523e:	df 93       	push	r29
    5240:	ec 01       	movw	r28, r24
    5242:	d6 2e       	mov	r13, r22
    5244:	0c 81       	ldd	r16, Y+4	; 0x04
    5246:	1d 81       	ldd	r17, Y+5	; 0x05
    5248:	c8 01       	movw	r24, r16
    524a:	0e 94 f9 28 	call	0x51f2	; 0x51f2 <u8g_font_GetFormat>
    524e:	e8 2e       	mov	r14, r24
    5250:	c8 01       	movw	r24, r16
    5252:	0e 94 fc 28 	call	0x51f8	; 0x51f8 <u8g_font_GetFontGlyphStructureSize>
    5256:	a8 2e       	mov	r10, r24
    5258:	21 e0       	ldi	r18, 0x01	; 1
    525a:	e2 16       	cp	r14, r18
    525c:	19 f0       	breq	.+6      	; 0x5264 <u8g_GetGlyph+0x38>
    525e:	cc 24       	eor	r12, r12
    5260:	ca 94       	dec	r12
    5262:	02 c0       	rjmp	.+4      	; 0x5268 <u8g_GetGlyph+0x3c>
    5264:	6f e0       	ldi	r22, 0x0F	; 15
    5266:	c6 2e       	mov	r12, r22
    5268:	c8 01       	movw	r24, r16
    526a:	0e 94 0e 29 	call	0x521c	; 0x521c <u8g_font_GetFontStartEncoding>
    526e:	f8 2e       	mov	r15, r24
    5270:	c8 01       	movw	r24, r16
    5272:	0e 94 12 29 	call	0x5224	; 0x5224 <u8g_font_GetFontEndEncoding>
    5276:	b8 2e       	mov	r11, r24
    5278:	c8 01       	movw	r24, r16
    527a:	0e 94 0b 29 	call	0x5216	; 0x5216 <u8g_font_GetEncoding97Pos>
    527e:	e0 e6       	ldi	r30, 0x60	; 96
    5280:	ed 15       	cp	r30, r13
    5282:	40 f4       	brcc	.+16     	; 0x5294 <u8g_GetGlyph+0x68>
    5284:	00 97       	sbiw	r24, 0x00	; 0
    5286:	31 f0       	breq	.+12     	; 0x5294 <u8g_GetGlyph+0x68>
    5288:	98 01       	movw	r18, r16
    528a:	28 0f       	add	r18, r24
    528c:	39 1f       	adc	r19, r25
    528e:	51 e6       	ldi	r21, 0x61	; 97
    5290:	f5 2e       	mov	r15, r21
    5292:	10 c0       	rjmp	.+32     	; 0x52b4 <u8g_GetGlyph+0x88>
    5294:	c8 01       	movw	r24, r16
    5296:	0e 94 08 29 	call	0x5210	; 0x5210 <u8g_font_GetEncoding65Pos>
    529a:	f0 e4       	ldi	r31, 0x40	; 64
    529c:	98 01       	movw	r18, r16
    529e:	fd 15       	cp	r31, r13
    52a0:	38 f4       	brcc	.+14     	; 0x52b0 <u8g_GetGlyph+0x84>
    52a2:	00 97       	sbiw	r24, 0x00	; 0
    52a4:	29 f0       	breq	.+10     	; 0x52b0 <u8g_GetGlyph+0x84>
    52a6:	28 0f       	add	r18, r24
    52a8:	39 1f       	adc	r19, r25
    52aa:	41 e4       	ldi	r20, 0x41	; 65
    52ac:	f4 2e       	mov	r15, r20
    52ae:	02 c0       	rjmp	.+4      	; 0x52b4 <u8g_GetGlyph+0x88>
    52b0:	2f 5e       	subi	r18, 0xEF	; 239
    52b2:	3f 4f       	sbci	r19, 0xFF	; 255
    52b4:	bd 14       	cp	r11, r13
    52b6:	40 f4       	brcc	.+16     	; 0x52c8 <u8g_GetGlyph+0x9c>
    52b8:	18 8a       	std	Y+16, r1	; 0x10
    52ba:	1b 8a       	std	Y+19, r1	; 0x13
    52bc:	1c 8a       	std	Y+20, r1	; 0x14
    52be:	19 8a       	std	Y+17, r1	; 0x11
    52c0:	1a 8a       	std	Y+18, r1	; 0x12
    52c2:	80 e0       	ldi	r24, 0x00	; 0
    52c4:	90 e0       	ldi	r25, 0x00	; 0
    52c6:	4c c0       	rjmp	.+152    	; 0x5360 <u8g_GetGlyph+0x134>
    52c8:	bf 14       	cp	r11, r15
    52ca:	b0 f3       	brcs	.-20     	; 0x52b8 <u8g_GetGlyph+0x8c>
    52cc:	4a 2d       	mov	r20, r10
    52ce:	50 e0       	ldi	r21, 0x00	; 0
    52d0:	f9 01       	movw	r30, r18
    52d2:	84 91       	lpm	r24, Z
    52d4:	8f 3f       	cpi	r24, 0xFF	; 255
    52d6:	19 f4       	brne	.+6      	; 0x52de <u8g_GetGlyph+0xb2>
    52d8:	2f 5f       	subi	r18, 0xFF	; 255
    52da:	3f 4f       	sbci	r19, 0xFF	; 255
    52dc:	3c c0       	rjmp	.+120    	; 0x5356 <u8g_GetGlyph+0x12a>
    52de:	fd 10       	cpse	r15, r13
    52e0:	32 c0       	rjmp	.+100    	; 0x5346 <u8g_GetGlyph+0x11a>
    52e2:	a9 01       	movw	r20, r18
    52e4:	4f 5f       	subi	r20, 0xFF	; 255
    52e6:	5f 4f       	sbci	r21, 0xFF	; 255
    52e8:	ee 20       	and	r14, r14
    52ea:	19 f0       	breq	.+6      	; 0x52f2 <u8g_GetGlyph+0xc6>
    52ec:	f2 e0       	ldi	r31, 0x02	; 2
    52ee:	ef 12       	cpse	r14, r31
    52f0:	13 c0       	rjmp	.+38     	; 0x5318 <u8g_GetGlyph+0xec>
    52f2:	f9 01       	movw	r30, r18
    52f4:	84 91       	lpm	r24, Z
    52f6:	8b 8b       	std	Y+19, r24	; 0x13
    52f8:	fa 01       	movw	r30, r20
    52fa:	44 91       	lpm	r20, Z
    52fc:	4c 8b       	std	Y+20, r20	; 0x14
    52fe:	f9 01       	movw	r30, r18
    5300:	33 96       	adiw	r30, 0x03	; 3
    5302:	e4 91       	lpm	r30, Z
    5304:	e8 8b       	std	Y+16, r30	; 0x10
    5306:	f9 01       	movw	r30, r18
    5308:	34 96       	adiw	r30, 0x04	; 4
    530a:	e4 91       	lpm	r30, Z
    530c:	e9 8b       	std	Y+17, r30	; 0x11
    530e:	f9 01       	movw	r30, r18
    5310:	35 96       	adiw	r30, 0x05	; 5
    5312:	e4 91       	lpm	r30, Z
    5314:	ea 8b       	std	Y+18, r30	; 0x12
    5316:	15 c0       	rjmp	.+42     	; 0x5342 <u8g_GetGlyph+0x116>
    5318:	98 2f       	mov	r25, r24
    531a:	9f 70       	andi	r25, 0x0F	; 15
    531c:	92 50       	subi	r25, 0x02	; 2
    531e:	9a 8b       	std	Y+18, r25	; 0x12
    5320:	82 95       	swap	r24
    5322:	8f 70       	andi	r24, 0x0F	; 15
    5324:	89 8b       	std	Y+17, r24	; 0x11
    5326:	fa 01       	movw	r30, r20
    5328:	44 91       	lpm	r20, Z
    532a:	84 2f       	mov	r24, r20
    532c:	8f 70       	andi	r24, 0x0F	; 15
    532e:	8c 8b       	std	Y+20, r24	; 0x14
    5330:	42 95       	swap	r20
    5332:	4f 70       	andi	r20, 0x0F	; 15
    5334:	4b 8b       	std	Y+19, r20	; 0x13
    5336:	f9 01       	movw	r30, r18
    5338:	32 96       	adiw	r30, 0x02	; 2
    533a:	e4 91       	lpm	r30, Z
    533c:	e2 95       	swap	r30
    533e:	ef 70       	andi	r30, 0x0F	; 15
    5340:	e8 8b       	std	Y+16, r30	; 0x10
    5342:	c9 01       	movw	r24, r18
    5344:	0d c0       	rjmp	.+26     	; 0x5360 <u8g_GetGlyph+0x134>
    5346:	f9 01       	movw	r30, r18
    5348:	32 96       	adiw	r30, 0x02	; 2
    534a:	e4 91       	lpm	r30, Z
    534c:	ec 21       	and	r30, r12
    534e:	2e 0f       	add	r18, r30
    5350:	31 1d       	adc	r19, r1
    5352:	24 0f       	add	r18, r20
    5354:	35 1f       	adc	r19, r21
    5356:	fb 14       	cp	r15, r11
    5358:	09 f4       	brne	.+2      	; 0x535c <u8g_GetGlyph+0x130>
    535a:	ae cf       	rjmp	.-164    	; 0x52b8 <u8g_GetGlyph+0x8c>
    535c:	f3 94       	inc	r15
    535e:	b8 cf       	rjmp	.-144    	; 0x52d0 <u8g_GetGlyph+0xa4>
    5360:	df 91       	pop	r29
    5362:	cf 91       	pop	r28
    5364:	1f 91       	pop	r17
    5366:	0f 91       	pop	r16
    5368:	ff 90       	pop	r15
    536a:	ef 90       	pop	r14
    536c:	df 90       	pop	r13
    536e:	cf 90       	pop	r12
    5370:	bf 90       	pop	r11
    5372:	af 90       	pop	r10
    5374:	08 95       	ret

00005376 <u8g_draw_glyph>:
    5376:	4f 92       	push	r4
    5378:	5f 92       	push	r5
    537a:	7f 92       	push	r7
    537c:	8f 92       	push	r8
    537e:	9f 92       	push	r9
    5380:	af 92       	push	r10
    5382:	bf 92       	push	r11
    5384:	cf 92       	push	r12
    5386:	df 92       	push	r13
    5388:	ef 92       	push	r14
    538a:	ff 92       	push	r15
    538c:	0f 93       	push	r16
    538e:	1f 93       	push	r17
    5390:	cf 93       	push	r28
    5392:	df 93       	push	r29
    5394:	1f 92       	push	r1
    5396:	cd b7       	in	r28, 0x3d	; 61
    5398:	de b7       	in	r29, 0x3e	; 62
    539a:	2c 01       	movw	r4, r24
    539c:	16 2f       	mov	r17, r22
    539e:	74 2e       	mov	r7, r20
    53a0:	62 2f       	mov	r22, r18
    53a2:	0e 94 16 29 	call	0x522c	; 0x522c <u8g_GetGlyph>
    53a6:	6c 01       	movw	r12, r24
    53a8:	00 97       	sbiw	r24, 0x00	; 0
    53aa:	09 f4       	brne	.+2      	; 0x53ae <u8g_draw_glyph+0x38>
    53ac:	3e c0       	rjmp	.+124    	; 0x542a <u8g_draw_glyph+0xb4>
    53ae:	f2 01       	movw	r30, r4
    53b0:	84 81       	ldd	r24, Z+4	; 0x04
    53b2:	95 81       	ldd	r25, Z+5	; 0x05
    53b4:	0e 94 fc 28 	call	0x51f8	; 0x51f8 <u8g_font_GetFontGlyphStructureSize>
    53b8:	f8 2e       	mov	r15, r24
    53ba:	f2 01       	movw	r30, r4
    53bc:	83 88       	ldd	r8, Z+19	; 0x13
    53be:	04 89       	ldd	r16, Z+20	; 0x14
    53c0:	91 88       	ldd	r9, Z+17	; 0x11
    53c2:	91 0e       	add	r9, r17
    53c4:	82 89       	ldd	r24, Z+18	; 0x12
    53c6:	78 1a       	sub	r7, r24
    53c8:	17 2d       	mov	r17, r7
    53ca:	10 1b       	sub	r17, r16
    53cc:	28 2d       	mov	r18, r8
    53ce:	41 2f       	mov	r20, r17
    53d0:	69 2d       	mov	r22, r9
    53d2:	c2 01       	movw	r24, r4
    53d4:	0e 94 60 28 	call	0x50c0	; 0x50c0 <u8g_IsBBXIntersection>
    53d8:	88 23       	and	r24, r24
    53da:	21 f1       	breq	.+72     	; 0x5424 <u8g_draw_glyph+0xae>
    53dc:	cf 0c       	add	r12, r15
    53de:	d1 1c       	adc	r13, r1
    53e0:	f7 e0       	ldi	r31, 0x07	; 7
    53e2:	8f 0e       	add	r8, r31
    53e4:	86 94       	lsr	r8
    53e6:	86 94       	lsr	r8
    53e8:	86 94       	lsr	r8
    53ea:	a8 2c       	mov	r10, r8
    53ec:	b1 2c       	mov	r11, r1
    53ee:	17 15       	cp	r17, r7
    53f0:	c9 f0       	breq	.+50     	; 0x5424 <u8g_draw_glyph+0xae>
    53f2:	39 2d       	mov	r19, r9
    53f4:	76 01       	movw	r14, r12
    53f6:	8e 2d       	mov	r24, r14
    53f8:	8c 19       	sub	r24, r12
    53fa:	88 15       	cp	r24, r8
    53fc:	78 f4       	brcc	.+30     	; 0x541c <u8g_draw_glyph+0xa6>
    53fe:	f7 01       	movw	r30, r14
    5400:	04 91       	lpm	r16, Z
    5402:	20 e0       	ldi	r18, 0x00	; 0
    5404:	41 2f       	mov	r20, r17
    5406:	63 2f       	mov	r22, r19
    5408:	c2 01       	movw	r24, r4
    540a:	39 83       	std	Y+1, r19	; 0x01
    540c:	0e 94 0c 2c 	call	0x5818	; 0x5818 <u8g_Draw8Pixel>
    5410:	ff ef       	ldi	r31, 0xFF	; 255
    5412:	ef 1a       	sub	r14, r31
    5414:	ff 0a       	sbc	r15, r31
    5416:	39 81       	ldd	r19, Y+1	; 0x01
    5418:	38 5f       	subi	r19, 0xF8	; 248
    541a:	ed cf       	rjmp	.-38     	; 0x53f6 <u8g_draw_glyph+0x80>
    541c:	ca 0c       	add	r12, r10
    541e:	db 1c       	adc	r13, r11
    5420:	1f 5f       	subi	r17, 0xFF	; 255
    5422:	e5 cf       	rjmp	.-54     	; 0x53ee <u8g_draw_glyph+0x78>
    5424:	f2 01       	movw	r30, r4
    5426:	80 89       	ldd	r24, Z+16	; 0x10
    5428:	01 c0       	rjmp	.+2      	; 0x542c <u8g_draw_glyph+0xb6>
    542a:	80 e0       	ldi	r24, 0x00	; 0
    542c:	0f 90       	pop	r0
    542e:	df 91       	pop	r29
    5430:	cf 91       	pop	r28
    5432:	1f 91       	pop	r17
    5434:	0f 91       	pop	r16
    5436:	ff 90       	pop	r15
    5438:	ef 90       	pop	r14
    543a:	df 90       	pop	r13
    543c:	cf 90       	pop	r12
    543e:	bf 90       	pop	r11
    5440:	af 90       	pop	r10
    5442:	9f 90       	pop	r9
    5444:	8f 90       	pop	r8
    5446:	7f 90       	pop	r7
    5448:	5f 90       	pop	r5
    544a:	4f 90       	pop	r4
    544c:	08 95       	ret

0000544e <u8g_DrawStr>:
    544e:	af 92       	push	r10
    5450:	bf 92       	push	r11
    5452:	df 92       	push	r13
    5454:	ef 92       	push	r14
    5456:	ff 92       	push	r15
    5458:	0f 93       	push	r16
    545a:	1f 93       	push	r17
    545c:	cf 93       	push	r28
    545e:	df 93       	push	r29
    5460:	00 d0       	rcall	.+0      	; 0x5462 <u8g_DrawStr+0x14>
    5462:	cd b7       	in	r28, 0x3d	; 61
    5464:	de b7       	in	r29, 0x3e	; 62
    5466:	8c 01       	movw	r16, r24
    5468:	e6 2e       	mov	r14, r22
    546a:	f4 2e       	mov	r15, r20
    546c:	dc 01       	movw	r26, r24
    546e:	55 96       	adiw	r26, 0x15	; 21
    5470:	ed 91       	ld	r30, X+
    5472:	fc 91       	ld	r31, X
    5474:	56 97       	sbiw	r26, 0x16	; 22
    5476:	29 83       	std	Y+1, r18	; 0x01
    5478:	3a 83       	std	Y+2, r19	; 0x02
    547a:	09 95       	icall
    547c:	f8 0e       	add	r15, r24
    547e:	29 81       	ldd	r18, Y+1	; 0x01
    5480:	a2 2e       	mov	r10, r18
    5482:	3a 81       	ldd	r19, Y+2	; 0x02
    5484:	b3 2e       	mov	r11, r19
    5486:	d1 2c       	mov	r13, r1
    5488:	f5 01       	movw	r30, r10
    548a:	21 91       	ld	r18, Z+
    548c:	5f 01       	movw	r10, r30
    548e:	22 23       	and	r18, r18
    5490:	41 f0       	breq	.+16     	; 0x54a2 <u8g_DrawStr+0x54>
    5492:	4f 2d       	mov	r20, r15
    5494:	6e 2d       	mov	r22, r14
    5496:	c8 01       	movw	r24, r16
    5498:	0e 94 bb 29 	call	0x5376	; 0x5376 <u8g_draw_glyph>
    549c:	e8 0e       	add	r14, r24
    549e:	d8 0e       	add	r13, r24
    54a0:	f3 cf       	rjmp	.-26     	; 0x5488 <u8g_DrawStr+0x3a>
    54a2:	8d 2d       	mov	r24, r13
    54a4:	0f 90       	pop	r0
    54a6:	0f 90       	pop	r0
    54a8:	df 91       	pop	r29
    54aa:	cf 91       	pop	r28
    54ac:	1f 91       	pop	r17
    54ae:	0f 91       	pop	r16
    54b0:	ff 90       	pop	r15
    54b2:	ef 90       	pop	r14
    54b4:	df 90       	pop	r13
    54b6:	bf 90       	pop	r11
    54b8:	af 90       	pop	r10
    54ba:	08 95       	ret

000054bc <u8g_UpdateRefHeight>:
    54bc:	dc 01       	movw	r26, r24
    54be:	14 96       	adiw	r26, 0x04	; 4
    54c0:	8d 91       	ld	r24, X+
    54c2:	9c 91       	ld	r25, X
    54c4:	15 97       	sbiw	r26, 0x05	; 5
    54c6:	00 97       	sbiw	r24, 0x00	; 0
    54c8:	09 f4       	brne	.+2      	; 0x54cc <u8g_UpdateRefHeight+0x10>
    54ca:	3f c0       	rjmp	.+126    	; 0x554a <u8g_UpdateRefHeight+0x8e>
    54cc:	57 96       	adiw	r26, 0x17	; 23
    54ce:	2c 91       	ld	r18, X
    54d0:	57 97       	sbiw	r26, 0x17	; 23
    54d2:	fc 01       	movw	r30, r24
    54d4:	21 11       	cpse	r18, r1
    54d6:	08 c0       	rjmp	.+16     	; 0x54e8 <u8g_UpdateRefHeight+0x2c>
    54d8:	35 96       	adiw	r30, 0x05	; 5
    54da:	e4 91       	lpm	r30, Z
    54dc:	58 96       	adiw	r26, 0x18	; 24
    54de:	ec 93       	st	X, r30
    54e0:	58 97       	sbiw	r26, 0x18	; 24
    54e2:	fc 01       	movw	r30, r24
    54e4:	3c 96       	adiw	r30, 0x0c	; 12
    54e6:	11 c0       	rjmp	.+34     	; 0x550a <u8g_UpdateRefHeight+0x4e>
    54e8:	21 30       	cpi	r18, 0x01	; 1
    54ea:	41 f4       	brne	.+16     	; 0x54fc <u8g_UpdateRefHeight+0x40>
    54ec:	3f 96       	adiw	r30, 0x0f	; 15
    54ee:	e4 91       	lpm	r30, Z
    54f0:	58 96       	adiw	r26, 0x18	; 24
    54f2:	ec 93       	st	X, r30
    54f4:	58 97       	sbiw	r26, 0x18	; 24
    54f6:	fc 01       	movw	r30, r24
    54f8:	70 96       	adiw	r30, 0x10	; 16
    54fa:	07 c0       	rjmp	.+14     	; 0x550a <u8g_UpdateRefHeight+0x4e>
    54fc:	3d 96       	adiw	r30, 0x0d	; 13
    54fe:	e4 91       	lpm	r30, Z
    5500:	58 96       	adiw	r26, 0x18	; 24
    5502:	ec 93       	st	X, r30
    5504:	58 97       	sbiw	r26, 0x18	; 24
    5506:	fc 01       	movw	r30, r24
    5508:	3e 96       	adiw	r30, 0x0e	; 14
    550a:	84 91       	lpm	r24, Z
    550c:	59 96       	adiw	r26, 0x19	; 25
    550e:	8c 93       	st	X, r24
    5510:	59 97       	sbiw	r26, 0x19	; 25
    5512:	58 96       	adiw	r26, 0x18	; 24
    5514:	8c 91       	ld	r24, X
    5516:	58 97       	sbiw	r26, 0x18	; 24
    5518:	99 27       	eor	r25, r25
    551a:	87 fd       	sbrc	r24, 7
    551c:	90 95       	com	r25
    551e:	59 96       	adiw	r26, 0x19	; 25
    5520:	2c 91       	ld	r18, X
    5522:	59 97       	sbiw	r26, 0x19	; 25
    5524:	82 1b       	sub	r24, r18
    5526:	91 09       	sbc	r25, r1
    5528:	27 fd       	sbrc	r18, 7
    552a:	93 95       	inc	r25
    552c:	5a 96       	adiw	r26, 0x1a	; 26
    552e:	2c 91       	ld	r18, X
    5530:	5a 97       	sbiw	r26, 0x1a	; 26
    5532:	20 34       	cpi	r18, 0x40	; 64
    5534:	41 f0       	breq	.+16     	; 0x5546 <u8g_UpdateRefHeight+0x8a>
    5536:	82 9f       	mul	r24, r18
    5538:	c0 01       	movw	r24, r0
    553a:	11 24       	eor	r1, r1
    553c:	f6 e0       	ldi	r31, 0x06	; 6
    553e:	96 95       	lsr	r25
    5540:	87 95       	ror	r24
    5542:	fa 95       	dec	r31
    5544:	e1 f7       	brne	.-8      	; 0x553e <u8g_UpdateRefHeight+0x82>
    5546:	5b 96       	adiw	r26, 0x1b	; 27
    5548:	8c 93       	st	X, r24
    554a:	08 95       	ret

0000554c <u8g_SetFontPosBaseline>:
    554c:	26 e0       	ldi	r18, 0x06	; 6
    554e:	39 e2       	ldi	r19, 0x29	; 41
    5550:	fc 01       	movw	r30, r24
    5552:	36 8b       	std	Z+22, r19	; 0x16
    5554:	25 8b       	std	Z+21, r18	; 0x15
    5556:	08 95       	ret

00005558 <u8g_SetFont>:
    5558:	cf 93       	push	r28
    555a:	df 93       	push	r29
    555c:	ec 01       	movw	r28, r24
    555e:	8c 81       	ldd	r24, Y+4	; 0x04
    5560:	9d 81       	ldd	r25, Y+5	; 0x05
    5562:	86 17       	cp	r24, r22
    5564:	97 07       	cpc	r25, r23
    5566:	49 f0       	breq	.+18     	; 0x557a <u8g_SetFont+0x22>
    5568:	7d 83       	std	Y+5, r23	; 0x05
    556a:	6c 83       	std	Y+4, r22	; 0x04
    556c:	ce 01       	movw	r24, r28
    556e:	0e 94 5e 2a 	call	0x54bc	; 0x54bc <u8g_UpdateRefHeight>
    5572:	86 e0       	ldi	r24, 0x06	; 6
    5574:	99 e2       	ldi	r25, 0x29	; 41
    5576:	9e 8b       	std	Y+22, r25	; 0x16
    5578:	8d 8b       	std	Y+21, r24	; 0x15
    557a:	df 91       	pop	r29
    557c:	cf 91       	pop	r28
    557e:	08 95       	ret

00005580 <u8g_init_data>:
    5580:	1f 93       	push	r17
    5582:	cf 93       	push	r28
    5584:	df 93       	push	r29
    5586:	ec 01       	movw	r28, r24
    5588:	1d 82       	std	Y+5, r1	; 0x05
    558a:	1c 82       	std	Y+4, r1	; 0x04
    558c:	1f 82       	std	Y+7, r1	; 0x07
    558e:	1e 82       	std	Y+6, r1	; 0x06
    5590:	19 86       	std	Y+9, r1	; 0x09
    5592:	81 e0       	ldi	r24, 0x01	; 1
    5594:	88 87       	std	Y+8, r24	; 0x08
    5596:	82 e2       	ldi	r24, 0x22	; 34
    5598:	8a 87       	std	Y+10, r24	; 0x0a
    559a:	1f 86       	std	Y+15, r1	; 0x0f
    559c:	1e 86       	std	Y+14, r1	; 0x0e
    559e:	80 e0       	ldi	r24, 0x00	; 0
    55a0:	90 e0       	ldi	r25, 0x00	; 0
    55a2:	2f ef       	ldi	r18, 0xFF	; 255
    55a4:	fe 01       	movw	r30, r28
    55a6:	e8 0f       	add	r30, r24
    55a8:	f9 1f       	adc	r31, r25
    55aa:	23 a3       	std	Z+35, r18	; 0x23
    55ac:	01 96       	adiw	r24, 0x01	; 1
    55ae:	8e 30       	cpi	r24, 0x0E	; 14
    55b0:	91 05       	cpc	r25, r1
    55b2:	c1 f7       	brne	.-16     	; 0x55a4 <u8g_init_data+0x24>
    55b4:	11 e0       	ldi	r17, 0x01	; 1
    55b6:	18 a3       	std	Y+32, r17	; 0x20
    55b8:	ce 01       	movw	r24, r28
    55ba:	0e 94 a6 2a 	call	0x554c	; 0x554c <u8g_SetFontPosBaseline>
    55be:	1f 8b       	std	Y+23, r17	; 0x17
    55c0:	18 8e       	std	Y+24, r1	; 0x18
    55c2:	19 8e       	std	Y+25, r1	; 0x19
    55c4:	80 e4       	ldi	r24, 0x40	; 64
    55c6:	8a 8f       	std	Y+26, r24	; 0x1a
    55c8:	1b 8e       	std	Y+27, r1	; 0x1b
    55ca:	83 e2       	ldi	r24, 0x23	; 35
    55cc:	9d e2       	ldi	r25, 0x2D	; 45
    55ce:	9a ab       	std	Y+50, r25	; 0x32
    55d0:	89 ab       	std	Y+49, r24	; 0x31
    55d2:	df 91       	pop	r29
    55d4:	cf 91       	pop	r28
    55d6:	1f 91       	pop	r17
    55d8:	08 95       	ret

000055da <u8g_call_dev_fn>:
    55da:	db 01       	movw	r26, r22
    55dc:	ed 91       	ld	r30, X+
    55de:	fc 91       	ld	r31, X
    55e0:	09 94       	ijmp

000055e2 <u8g_InitLL>:
    55e2:	ef 92       	push	r14
    55e4:	ff 92       	push	r15
    55e6:	1f 93       	push	r17
    55e8:	cf 93       	push	r28
    55ea:	df 93       	push	r29
    55ec:	00 d0       	rcall	.+0      	; 0x55ee <u8g_InitLL+0xc>
    55ee:	cd b7       	in	r28, 0x3d	; 61
    55f0:	de b7       	in	r29, 0x3e	; 62
    55f2:	7c 01       	movw	r14, r24
    55f4:	dc 01       	movw	r26, r24
    55f6:	d1 96       	adiw	r26, 0x31	; 49
    55f8:	ed 91       	ld	r30, X+
    55fa:	fc 91       	ld	r31, X
    55fc:	d2 97       	sbiw	r26, 0x32	; 50
    55fe:	82 e0       	ldi	r24, 0x02	; 2
    5600:	69 83       	std	Y+1, r22	; 0x01
    5602:	7a 83       	std	Y+2, r23	; 0x02
    5604:	09 95       	icall
    5606:	20 e0       	ldi	r18, 0x00	; 0
    5608:	30 e0       	ldi	r19, 0x00	; 0
    560a:	4a e0       	ldi	r20, 0x0A	; 10
    560c:	69 81       	ldd	r22, Y+1	; 0x01
    560e:	7a 81       	ldd	r23, Y+2	; 0x02
    5610:	c7 01       	movw	r24, r14
    5612:	0e 94 ed 2a 	call	0x55da	; 0x55da <u8g_call_dev_fn>
    5616:	18 2f       	mov	r17, r24
    5618:	d7 01       	movw	r26, r14
    561a:	d1 96       	adiw	r26, 0x31	; 49
    561c:	ed 91       	ld	r30, X+
    561e:	fc 91       	ld	r31, X
    5620:	d2 97       	sbiw	r26, 0x32	; 50
    5622:	83 e0       	ldi	r24, 0x03	; 3
    5624:	09 95       	icall
    5626:	d7 01       	movw	r26, r14
    5628:	d1 96       	adiw	r26, 0x31	; 49
    562a:	ed 91       	ld	r30, X+
    562c:	fc 91       	ld	r31, X
    562e:	d2 97       	sbiw	r26, 0x32	; 50
    5630:	80 e0       	ldi	r24, 0x00	; 0
    5632:	09 95       	icall
    5634:	81 2f       	mov	r24, r17
    5636:	0f 90       	pop	r0
    5638:	0f 90       	pop	r0
    563a:	df 91       	pop	r29
    563c:	cf 91       	pop	r28
    563e:	1f 91       	pop	r17
    5640:	ff 90       	pop	r15
    5642:	ef 90       	pop	r14
    5644:	08 95       	ret

00005646 <u8g_FirstPageLL>:
    5646:	0f 93       	push	r16
    5648:	1f 93       	push	r17
    564a:	cf 93       	push	r28
    564c:	df 93       	push	r29
    564e:	ec 01       	movw	r28, r24
    5650:	8b 01       	movw	r16, r22
    5652:	e9 a9       	ldd	r30, Y+49	; 0x31
    5654:	fa a9       	ldd	r31, Y+50	; 0x32
    5656:	82 e0       	ldi	r24, 0x02	; 2
    5658:	09 95       	icall
    565a:	e9 a9       	ldd	r30, Y+49	; 0x31
    565c:	fa a9       	ldd	r31, Y+50	; 0x32
    565e:	81 e0       	ldi	r24, 0x01	; 1
    5660:	09 95       	icall
    5662:	20 e0       	ldi	r18, 0x00	; 0
    5664:	30 e0       	ldi	r19, 0x00	; 0
    5666:	44 e1       	ldi	r20, 0x14	; 20
    5668:	b8 01       	movw	r22, r16
    566a:	ce 01       	movw	r24, r28
    566c:	0e 94 ed 2a 	call	0x55da	; 0x55da <u8g_call_dev_fn>
    5670:	9e 01       	movw	r18, r28
    5672:	2d 5c       	subi	r18, 0xCD	; 205
    5674:	3f 4f       	sbci	r19, 0xFF	; 255
    5676:	47 e1       	ldi	r20, 0x17	; 23
    5678:	b8 01       	movw	r22, r16
    567a:	ce 01       	movw	r24, r28
    567c:	0e 94 ed 2a 	call	0x55da	; 0x55da <u8g_call_dev_fn>
    5680:	e9 a9       	ldd	r30, Y+49	; 0x31
    5682:	fa a9       	ldd	r31, Y+50	; 0x32
    5684:	80 e0       	ldi	r24, 0x00	; 0
    5686:	df 91       	pop	r29
    5688:	cf 91       	pop	r28
    568a:	1f 91       	pop	r17
    568c:	0f 91       	pop	r16
    568e:	09 94       	ijmp

00005690 <u8g_NextPageLL>:
    5690:	ff 92       	push	r15
    5692:	0f 93       	push	r16
    5694:	1f 93       	push	r17
    5696:	cf 93       	push	r28
    5698:	df 93       	push	r29
    569a:	ec 01       	movw	r28, r24
    569c:	8b 01       	movw	r16, r22
    569e:	e9 a9       	ldd	r30, Y+49	; 0x31
    56a0:	fa a9       	ldd	r31, Y+50	; 0x32
    56a2:	82 e0       	ldi	r24, 0x02	; 2
    56a4:	09 95       	icall
    56a6:	e9 a9       	ldd	r30, Y+49	; 0x31
    56a8:	fa a9       	ldd	r31, Y+50	; 0x32
    56aa:	81 e0       	ldi	r24, 0x01	; 1
    56ac:	09 95       	icall
    56ae:	20 e0       	ldi	r18, 0x00	; 0
    56b0:	30 e0       	ldi	r19, 0x00	; 0
    56b2:	45 e1       	ldi	r20, 0x15	; 21
    56b4:	b8 01       	movw	r22, r16
    56b6:	ce 01       	movw	r24, r28
    56b8:	0e 94 ed 2a 	call	0x55da	; 0x55da <u8g_call_dev_fn>
    56bc:	f8 2e       	mov	r15, r24
    56be:	88 23       	and	r24, r24
    56c0:	41 f0       	breq	.+16     	; 0x56d2 <u8g_NextPageLL+0x42>
    56c2:	9e 01       	movw	r18, r28
    56c4:	2d 5c       	subi	r18, 0xCD	; 205
    56c6:	3f 4f       	sbci	r19, 0xFF	; 255
    56c8:	47 e1       	ldi	r20, 0x17	; 23
    56ca:	b8 01       	movw	r22, r16
    56cc:	ce 01       	movw	r24, r28
    56ce:	0e 94 ed 2a 	call	0x55da	; 0x55da <u8g_call_dev_fn>
    56d2:	e9 a9       	ldd	r30, Y+49	; 0x31
    56d4:	fa a9       	ldd	r31, Y+50	; 0x32
    56d6:	80 e0       	ldi	r24, 0x00	; 0
    56d8:	09 95       	icall
    56da:	8f 2d       	mov	r24, r15
    56dc:	df 91       	pop	r29
    56de:	cf 91       	pop	r28
    56e0:	1f 91       	pop	r17
    56e2:	0f 91       	pop	r16
    56e4:	ff 90       	pop	r15
    56e6:	08 95       	ret

000056e8 <u8g_DrawPixelLL>:
    56e8:	fc 01       	movw	r30, r24
    56ea:	44 8f       	std	Z+28, r20	; 0x1c
    56ec:	25 8f       	std	Z+29, r18	; 0x1d
    56ee:	9c 01       	movw	r18, r24
    56f0:	24 5e       	subi	r18, 0xE4	; 228
    56f2:	3f 4f       	sbci	r19, 0xFF	; 255
    56f4:	42 e3       	ldi	r20, 0x32	; 50
    56f6:	0c 94 ed 2a 	jmp	0x55da	; 0x55da <u8g_call_dev_fn>

000056fa <u8g_GetWidthLL>:
    56fa:	cf 93       	push	r28
    56fc:	df 93       	push	r29
    56fe:	1f 92       	push	r1
    5700:	cd b7       	in	r28, 0x3d	; 61
    5702:	de b7       	in	r29, 0x3e	; 62
    5704:	9e 01       	movw	r18, r28
    5706:	2f 5f       	subi	r18, 0xFF	; 255
    5708:	3f 4f       	sbci	r19, 0xFF	; 255
    570a:	46 e4       	ldi	r20, 0x46	; 70
    570c:	0e 94 ed 2a 	call	0x55da	; 0x55da <u8g_call_dev_fn>
    5710:	89 81       	ldd	r24, Y+1	; 0x01
    5712:	0f 90       	pop	r0
    5714:	df 91       	pop	r29
    5716:	cf 91       	pop	r28
    5718:	08 95       	ret

0000571a <u8g_GetHeightLL>:
    571a:	cf 93       	push	r28
    571c:	df 93       	push	r29
    571e:	1f 92       	push	r1
    5720:	cd b7       	in	r28, 0x3d	; 61
    5722:	de b7       	in	r29, 0x3e	; 62
    5724:	9e 01       	movw	r18, r28
    5726:	2f 5f       	subi	r18, 0xFF	; 255
    5728:	3f 4f       	sbci	r19, 0xFF	; 255
    572a:	47 e4       	ldi	r20, 0x47	; 71
    572c:	0e 94 ed 2a 	call	0x55da	; 0x55da <u8g_call_dev_fn>
    5730:	89 81       	ldd	r24, Y+1	; 0x01
    5732:	0f 90       	pop	r0
    5734:	df 91       	pop	r29
    5736:	cf 91       	pop	r28
    5738:	08 95       	ret

0000573a <u8g_GetModeLL>:
    573a:	20 e0       	ldi	r18, 0x00	; 0
    573c:	30 e0       	ldi	r19, 0x00	; 0
    573e:	48 e4       	ldi	r20, 0x48	; 72
    5740:	0c 94 ed 2a 	jmp	0x55da	; 0x55da <u8g_call_dev_fn>

00005744 <u8g_UpdateDimension>:
    5744:	cf 93       	push	r28
    5746:	df 93       	push	r29
    5748:	ec 01       	movw	r28, r24
    574a:	6a 81       	ldd	r22, Y+2	; 0x02
    574c:	7b 81       	ldd	r23, Y+3	; 0x03
    574e:	0e 94 7d 2b 	call	0x56fa	; 0x56fa <u8g_GetWidthLL>
    5752:	88 83       	st	Y, r24
    5754:	6a 81       	ldd	r22, Y+2	; 0x02
    5756:	7b 81       	ldd	r23, Y+3	; 0x03
    5758:	ce 01       	movw	r24, r28
    575a:	0e 94 8d 2b 	call	0x571a	; 0x571a <u8g_GetHeightLL>
    575e:	89 83       	std	Y+1, r24	; 0x01
    5760:	6a 81       	ldd	r22, Y+2	; 0x02
    5762:	7b 81       	ldd	r23, Y+3	; 0x03
    5764:	ce 01       	movw	r24, r28
    5766:	0e 94 9d 2b 	call	0x573a	; 0x573a <u8g_GetModeLL>
    576a:	8b 87       	std	Y+11, r24	; 0x0b
    576c:	9e 01       	movw	r18, r28
    576e:	2d 5c       	subi	r18, 0xCD	; 205
    5770:	3f 4f       	sbci	r19, 0xFF	; 255
    5772:	6a 81       	ldd	r22, Y+2	; 0x02
    5774:	7b 81       	ldd	r23, Y+3	; 0x03
    5776:	47 e1       	ldi	r20, 0x17	; 23
    5778:	ce 01       	movw	r24, r28
    577a:	df 91       	pop	r29
    577c:	cf 91       	pop	r28
    577e:	0c 94 ed 2a 	jmp	0x55da	; 0x55da <u8g_call_dev_fn>

00005782 <u8g_Begin>:
    5782:	cf 93       	push	r28
    5784:	df 93       	push	r29
    5786:	ec 01       	movw	r28, r24
    5788:	6a 81       	ldd	r22, Y+2	; 0x02
    578a:	7b 81       	ldd	r23, Y+3	; 0x03
    578c:	0e 94 f1 2a 	call	0x55e2	; 0x55e2 <u8g_InitLL>
    5790:	88 23       	and	r24, r24
    5792:	29 f0       	breq	.+10     	; 0x579e <u8g_Begin+0x1c>
    5794:	ce 01       	movw	r24, r28
    5796:	0e 94 a2 2b 	call	0x5744	; 0x5744 <u8g_UpdateDimension>
    579a:	81 e0       	ldi	r24, 0x01	; 1
    579c:	01 c0       	rjmp	.+2      	; 0x57a0 <u8g_Begin+0x1e>
    579e:	80 e0       	ldi	r24, 0x00	; 0
    57a0:	df 91       	pop	r29
    57a2:	cf 91       	pop	r28
    57a4:	08 95       	ret

000057a6 <u8g_InitI2C>:
    57a6:	ef 92       	push	r14
    57a8:	ff 92       	push	r15
    57aa:	0f 93       	push	r16
    57ac:	1f 93       	push	r17
    57ae:	cf 93       	push	r28
    57b0:	df 93       	push	r29
    57b2:	1f 92       	push	r1
    57b4:	cd b7       	in	r28, 0x3d	; 61
    57b6:	de b7       	in	r29, 0x3e	; 62
    57b8:	7c 01       	movw	r14, r24
    57ba:	8b 01       	movw	r16, r22
    57bc:	49 83       	std	Y+1, r20	; 0x01
    57be:	0e 94 c0 2a 	call	0x5580	; 0x5580 <u8g_init_data>
    57c2:	f7 01       	movw	r30, r14
    57c4:	13 83       	std	Z+3, r17	; 0x03
    57c6:	02 83       	std	Z+2, r16	; 0x02
    57c8:	49 81       	ldd	r20, Y+1	; 0x01
    57ca:	46 a7       	std	Z+46, r20	; 0x2e
    57cc:	c7 01       	movw	r24, r14
    57ce:	0f 90       	pop	r0
    57d0:	df 91       	pop	r29
    57d2:	cf 91       	pop	r28
    57d4:	1f 91       	pop	r17
    57d6:	0f 91       	pop	r16
    57d8:	ff 90       	pop	r15
    57da:	ef 90       	pop	r14
    57dc:	0c 94 c1 2b 	jmp	0x5782	; 0x5782 <u8g_Begin>

000057e0 <u8g_FirstPage>:
    57e0:	fc 01       	movw	r30, r24
    57e2:	62 81       	ldd	r22, Z+2	; 0x02
    57e4:	73 81       	ldd	r23, Z+3	; 0x03
    57e6:	0c 94 23 2b 	jmp	0x5646	; 0x5646 <u8g_FirstPageLL>

000057ea <u8g_NextPage>:
    57ea:	cf 93       	push	r28
    57ec:	df 93       	push	r29
    57ee:	ec 01       	movw	r28, r24
    57f0:	ee 85       	ldd	r30, Y+14	; 0x0e
    57f2:	ff 85       	ldd	r31, Y+15	; 0x0f
    57f4:	30 97       	sbiw	r30, 0x00	; 0
    57f6:	09 f0       	breq	.+2      	; 0x57fa <u8g_NextPage+0x10>
    57f8:	09 95       	icall
    57fa:	6a 81       	ldd	r22, Y+2	; 0x02
    57fc:	7b 81       	ldd	r23, Y+3	; 0x03
    57fe:	ce 01       	movw	r24, r28
    5800:	df 91       	pop	r29
    5802:	cf 91       	pop	r28
    5804:	0c 94 48 2b 	jmp	0x5690	; 0x5690 <u8g_NextPageLL>

00005808 <u8g_DrawPixel>:
    5808:	36 2f       	mov	r19, r22
    580a:	24 2f       	mov	r18, r20
    580c:	fc 01       	movw	r30, r24
    580e:	62 81       	ldd	r22, Z+2	; 0x02
    5810:	73 81       	ldd	r23, Z+3	; 0x03
    5812:	43 2f       	mov	r20, r19
    5814:	0c 94 74 2b 	jmp	0x56e8	; 0x56e8 <u8g_DrawPixelLL>

00005818 <u8g_Draw8Pixel>:
    5818:	0f 93       	push	r16
    581a:	fc 01       	movw	r30, r24
    581c:	82 81       	ldd	r24, Z+2	; 0x02
    581e:	93 81       	ldd	r25, Z+3	; 0x03
    5820:	64 8f       	std	Z+28, r22	; 0x1c
    5822:	45 8f       	std	Z+29, r20	; 0x1d
    5824:	27 8f       	std	Z+31, r18	; 0x1f
    5826:	06 8f       	std	Z+30, r16	; 0x1e
    5828:	9f 01       	movw	r18, r30
    582a:	24 5e       	subi	r18, 0xE4	; 228
    582c:	3f 4f       	sbci	r19, 0xFF	; 255
    582e:	4b e3       	ldi	r20, 0x3B	; 59
    5830:	bc 01       	movw	r22, r24
    5832:	cf 01       	movw	r24, r30
    5834:	0f 91       	pop	r16
    5836:	0c 94 ed 2a 	jmp	0x55da	; 0x55da <u8g_call_dev_fn>

0000583a <u8g_pb_Clear>:
    583a:	dc 01       	movw	r26, r24
    583c:	16 96       	adiw	r26, 0x06	; 6
    583e:	ed 91       	ld	r30, X+
    5840:	fc 91       	ld	r31, X
    5842:	17 97       	sbiw	r26, 0x07	; 7
    5844:	15 96       	adiw	r26, 0x05	; 5
    5846:	8c 91       	ld	r24, X
    5848:	9f 01       	movw	r18, r30
    584a:	28 0f       	add	r18, r24
    584c:	31 1d       	adc	r19, r1
    584e:	c9 01       	movw	r24, r18
    5850:	11 92       	st	Z+, r1
    5852:	e8 17       	cp	r30, r24
    5854:	f9 07       	cpc	r31, r25
    5856:	e1 f7       	brne	.-8      	; 0x5850 <u8g_pb_Clear+0x16>
    5858:	08 95       	ret

0000585a <u8g_pb_IsYIntersection>:
    585a:	fc 01       	movw	r30, r24
    585c:	91 e0       	ldi	r25, 0x01	; 1
    585e:	83 81       	ldd	r24, Z+3	; 0x03
    5860:	86 17       	cp	r24, r22
    5862:	08 f4       	brcc	.+2      	; 0x5866 <u8g_pb_IsYIntersection+0xc>
    5864:	90 e0       	ldi	r25, 0x00	; 0
    5866:	21 e0       	ldi	r18, 0x01	; 1
    5868:	46 17       	cp	r20, r22
    586a:	08 f0       	brcs	.+2      	; 0x586e <u8g_pb_IsYIntersection+0x14>
    586c:	20 e0       	ldi	r18, 0x00	; 0
    586e:	32 2f       	mov	r19, r18
    5870:	39 2b       	or	r19, r25
    5872:	81 e0       	ldi	r24, 0x01	; 1
    5874:	52 81       	ldd	r21, Z+2	; 0x02
    5876:	45 17       	cp	r20, r21
    5878:	08 f4       	brcc	.+2      	; 0x587c <u8g_pb_IsYIntersection+0x22>
    587a:	80 e0       	ldi	r24, 0x00	; 0
    587c:	83 23       	and	r24, r19
    587e:	92 23       	and	r25, r18
    5880:	89 2b       	or	r24, r25
    5882:	08 95       	ret

00005884 <u8g_pb_GetPageBox>:
    5884:	dc 01       	movw	r26, r24
    5886:	fb 01       	movw	r30, r22
    5888:	10 82       	st	Z, r1
    588a:	12 96       	adiw	r26, 0x02	; 2
    588c:	8c 91       	ld	r24, X
    588e:	12 97       	sbiw	r26, 0x02	; 2
    5890:	81 83       	std	Z+1, r24	; 0x01
    5892:	15 96       	adiw	r26, 0x05	; 5
    5894:	8c 91       	ld	r24, X
    5896:	15 97       	sbiw	r26, 0x05	; 5
    5898:	81 50       	subi	r24, 0x01	; 1
    589a:	82 83       	std	Z+2, r24	; 0x02
    589c:	13 96       	adiw	r26, 0x03	; 3
    589e:	8c 91       	ld	r24, X
    58a0:	83 83       	std	Z+3, r24	; 0x03
    58a2:	08 95       	ret

000058a4 <u8g_pb_Is8PixelVisible>:
    58a4:	fb 01       	movw	r30, r22
    58a6:	41 81       	ldd	r20, Z+1	; 0x01
    58a8:	23 81       	ldd	r18, Z+3	; 0x03
    58aa:	21 30       	cpi	r18, 0x01	; 1
    58ac:	29 f0       	breq	.+10     	; 0x58b8 <u8g_pb_Is8PixelVisible+0x14>
    58ae:	23 30       	cpi	r18, 0x03	; 3
    58b0:	31 f4       	brne	.+12     	; 0x58be <u8g_pb_Is8PixelVisible+0x1a>
    58b2:	68 ef       	ldi	r22, 0xF8	; 248
    58b4:	64 0f       	add	r22, r20
    58b6:	04 c0       	rjmp	.+8      	; 0x58c0 <u8g_pb_Is8PixelVisible+0x1c>
    58b8:	64 2f       	mov	r22, r20
    58ba:	48 5f       	subi	r20, 0xF8	; 248
    58bc:	01 c0       	rjmp	.+2      	; 0x58c0 <u8g_pb_Is8PixelVisible+0x1c>
    58be:	64 2f       	mov	r22, r20
    58c0:	0c 94 2d 2c 	jmp	0x585a	; 0x585a <u8g_pb_IsYIntersection>

000058c4 <u8g_pb_WriteBuffer>:
    58c4:	fc 01       	movw	r30, r24
    58c6:	cb 01       	movw	r24, r22
    58c8:	ba 01       	movw	r22, r20
    58ca:	26 81       	ldd	r18, Z+6	; 0x06
    58cc:	37 81       	ldd	r19, Z+7	; 0x07
    58ce:	45 81       	ldd	r20, Z+5	; 0x05
    58d0:	0c 94 5c 2d 	jmp	0x5ab8	; 0x5ab8 <u8g_WriteSequence>

000058d4 <u8g_pb8v1_set_pixel>:
    58d4:	dc 01       	movw	r26, r24
    58d6:	16 96       	adiw	r26, 0x06	; 6
    58d8:	ed 91       	ld	r30, X+
    58da:	fc 91       	ld	r31, X
    58dc:	17 97       	sbiw	r26, 0x07	; 7
    58de:	12 96       	adiw	r26, 0x02	; 2
    58e0:	8c 91       	ld	r24, X
    58e2:	48 1b       	sub	r20, r24
    58e4:	47 70       	andi	r20, 0x07	; 7
    58e6:	81 e0       	ldi	r24, 0x01	; 1
    58e8:	90 e0       	ldi	r25, 0x00	; 0
    58ea:	04 2e       	mov	r0, r20
    58ec:	01 c0       	rjmp	.+2      	; 0x58f0 <u8g_pb8v1_set_pixel+0x1c>
    58ee:	88 0f       	add	r24, r24
    58f0:	0a 94       	dec	r0
    58f2:	ea f7       	brpl	.-6      	; 0x58ee <u8g_pb8v1_set_pixel+0x1a>
    58f4:	e6 0f       	add	r30, r22
    58f6:	f1 1d       	adc	r31, r1
    58f8:	30 81       	ld	r19, Z
    58fa:	22 23       	and	r18, r18
    58fc:	11 f0       	breq	.+4      	; 0x5902 <u8g_pb8v1_set_pixel+0x2e>
    58fe:	83 2b       	or	r24, r19
    5900:	02 c0       	rjmp	.+4      	; 0x5906 <u8g_pb8v1_set_pixel+0x32>
    5902:	80 95       	com	r24
    5904:	83 23       	and	r24, r19
    5906:	80 83       	st	Z, r24
    5908:	08 95       	ret

0000590a <u8g_pb8v1_SetPixel>:
    590a:	fb 01       	movw	r30, r22
    590c:	41 81       	ldd	r20, Z+1	; 0x01
    590e:	dc 01       	movw	r26, r24
    5910:	12 96       	adiw	r26, 0x02	; 2
    5912:	2c 91       	ld	r18, X
    5914:	12 97       	sbiw	r26, 0x02	; 2
    5916:	42 17       	cp	r20, r18
    5918:	68 f0       	brcs	.+26     	; 0x5934 <u8g_pb8v1_SetPixel+0x2a>
    591a:	13 96       	adiw	r26, 0x03	; 3
    591c:	2c 91       	ld	r18, X
    591e:	13 97       	sbiw	r26, 0x03	; 3
    5920:	24 17       	cp	r18, r20
    5922:	40 f0       	brcs	.+16     	; 0x5934 <u8g_pb8v1_SetPixel+0x2a>
    5924:	60 81       	ld	r22, Z
    5926:	15 96       	adiw	r26, 0x05	; 5
    5928:	2c 91       	ld	r18, X
    592a:	62 17       	cp	r22, r18
    592c:	18 f4       	brcc	.+6      	; 0x5934 <u8g_pb8v1_SetPixel+0x2a>
    592e:	24 81       	ldd	r18, Z+4	; 0x04
    5930:	0c 94 6a 2c 	jmp	0x58d4	; 0x58d4 <u8g_pb8v1_set_pixel>
    5934:	08 95       	ret

00005936 <u8g_pb8v1_Set8PixelOpt2>:
    5936:	cf 92       	push	r12
    5938:	df 92       	push	r13
    593a:	ff 92       	push	r15
    593c:	0f 93       	push	r16
    593e:	1f 93       	push	r17
    5940:	cf 93       	push	r28
    5942:	df 93       	push	r29
    5944:	00 d0       	rcall	.+0      	; 0x5946 <u8g_pb8v1_Set8PixelOpt2+0x10>
    5946:	cd b7       	in	r28, 0x3d	; 61
    5948:	de b7       	in	r29, 0x3e	; 62
    594a:	8c 01       	movw	r16, r24
    594c:	6b 01       	movw	r12, r22
    594e:	fb 01       	movw	r30, r22
    5950:	f2 80       	ldd	r15, Z+2	; 0x02
    5952:	83 81       	ldd	r24, Z+3	; 0x03
    5954:	81 30       	cpi	r24, 0x01	; 1
    5956:	39 f0       	breq	.+14     	; 0x5966 <u8g_pb8v1_Set8PixelOpt2+0x30>
    5958:	70 f0       	brcs	.+28     	; 0x5976 <u8g_pb8v1_Set8PixelOpt2+0x40>
    595a:	82 30       	cpi	r24, 0x02	; 2
    595c:	39 f0       	breq	.+14     	; 0x596c <u8g_pb8v1_Set8PixelOpt2+0x36>
    595e:	83 30       	cpi	r24, 0x03	; 3
    5960:	41 f0       	breq	.+16     	; 0x5972 <u8g_pb8v1_Set8PixelOpt2+0x3c>
    5962:	20 e0       	ldi	r18, 0x00	; 0
    5964:	01 c0       	rjmp	.+2      	; 0x5968 <u8g_pb8v1_Set8PixelOpt2+0x32>
    5966:	21 e0       	ldi	r18, 0x01	; 1
    5968:	30 e0       	ldi	r19, 0x00	; 0
    596a:	07 c0       	rjmp	.+14     	; 0x597a <u8g_pb8v1_Set8PixelOpt2+0x44>
    596c:	20 e0       	ldi	r18, 0x00	; 0
    596e:	3f ef       	ldi	r19, 0xFF	; 255
    5970:	04 c0       	rjmp	.+8      	; 0x597a <u8g_pb8v1_Set8PixelOpt2+0x44>
    5972:	2f ef       	ldi	r18, 0xFF	; 255
    5974:	f9 cf       	rjmp	.-14     	; 0x5968 <u8g_pb8v1_Set8PixelOpt2+0x32>
    5976:	20 e0       	ldi	r18, 0x00	; 0
    5978:	31 e0       	ldi	r19, 0x01	; 1
    597a:	f7 fe       	sbrs	r15, 7
    597c:	08 c0       	rjmp	.+16     	; 0x598e <u8g_pb8v1_Set8PixelOpt2+0x58>
    597e:	b6 01       	movw	r22, r12
    5980:	c8 01       	movw	r24, r16
    5982:	29 83       	std	Y+1, r18	; 0x01
    5984:	3a 83       	std	Y+2, r19	; 0x02
    5986:	0e 94 85 2c 	call	0x590a	; 0x590a <u8g_pb8v1_SetPixel>
    598a:	3a 81       	ldd	r19, Y+2	; 0x02
    598c:	29 81       	ldd	r18, Y+1	; 0x01
    598e:	f6 01       	movw	r30, r12
    5990:	80 81       	ld	r24, Z
    5992:	83 0f       	add	r24, r19
    5994:	80 83       	st	Z, r24
    5996:	81 81       	ldd	r24, Z+1	; 0x01
    5998:	82 0f       	add	r24, r18
    599a:	81 83       	std	Z+1, r24	; 0x01
    599c:	ff 0c       	add	r15, r15
    599e:	69 f7       	brne	.-38     	; 0x597a <u8g_pb8v1_Set8PixelOpt2+0x44>
    59a0:	0f 90       	pop	r0
    59a2:	0f 90       	pop	r0
    59a4:	df 91       	pop	r29
    59a6:	cf 91       	pop	r28
    59a8:	1f 91       	pop	r17
    59aa:	0f 91       	pop	r16
    59ac:	ff 90       	pop	r15
    59ae:	df 90       	pop	r13
    59b0:	cf 90       	pop	r12
    59b2:	08 95       	ret

000059b4 <u8g_dev_pb8v1_base_fn>:
    59b4:	0f 93       	push	r16
    59b6:	1f 93       	push	r17
    59b8:	cf 93       	push	r28
    59ba:	df 93       	push	r29
    59bc:	89 01       	movw	r16, r18
    59be:	fb 01       	movw	r30, r22
    59c0:	c2 81       	ldd	r28, Z+2	; 0x02
    59c2:	d3 81       	ldd	r29, Z+3	; 0x03
    59c4:	42 33       	cpi	r20, 0x32	; 50
    59c6:	f9 f0       	breq	.+62     	; 0x5a06 <u8g_dev_pb8v1_base_fn+0x52>
    59c8:	68 f4       	brcc	.+26     	; 0x59e4 <u8g_dev_pb8v1_base_fn+0x30>
    59ca:	45 31       	cpi	r20, 0x15	; 21
    59cc:	09 f1       	breq	.+66     	; 0x5a10 <u8g_dev_pb8v1_base_fn+0x5c>
    59ce:	47 31       	cpi	r20, 0x17	; 23
    59d0:	41 f1       	breq	.+80     	; 0x5a22 <u8g_dev_pb8v1_base_fn+0x6e>
    59d2:	44 31       	cpi	r20, 0x14	; 20
    59d4:	81 f5       	brne	.+96     	; 0x5a36 <u8g_dev_pb8v1_base_fn+0x82>
    59d6:	ce 01       	movw	r24, r28
    59d8:	0e 94 1d 2c 	call	0x583a	; 0x583a <u8g_pb_Clear>
    59dc:	ce 01       	movw	r24, r28
    59de:	0e 94 da 2e 	call	0x5db4	; 0x5db4 <u8g_page_First>
    59e2:	29 c0       	rjmp	.+82     	; 0x5a36 <u8g_dev_pb8v1_base_fn+0x82>
    59e4:	46 34       	cpi	r20, 0x46	; 70
    59e6:	11 f1       	breq	.+68     	; 0x5a2c <u8g_dev_pb8v1_base_fn+0x78>
    59e8:	47 34       	cpi	r20, 0x47	; 71
    59ea:	11 f1       	breq	.+68     	; 0x5a30 <u8g_dev_pb8v1_base_fn+0x7c>
    59ec:	4b 33       	cpi	r20, 0x3B	; 59
    59ee:	19 f5       	brne	.+70     	; 0x5a36 <u8g_dev_pb8v1_base_fn+0x82>
    59f0:	b9 01       	movw	r22, r18
    59f2:	ce 01       	movw	r24, r28
    59f4:	0e 94 52 2c 	call	0x58a4	; 0x58a4 <u8g_pb_Is8PixelVisible>
    59f8:	88 23       	and	r24, r24
    59fa:	e9 f0       	breq	.+58     	; 0x5a36 <u8g_dev_pb8v1_base_fn+0x82>
    59fc:	b8 01       	movw	r22, r16
    59fe:	ce 01       	movw	r24, r28
    5a00:	0e 94 9b 2c 	call	0x5936	; 0x5936 <u8g_pb8v1_Set8PixelOpt2>
    5a04:	18 c0       	rjmp	.+48     	; 0x5a36 <u8g_dev_pb8v1_base_fn+0x82>
    5a06:	b9 01       	movw	r22, r18
    5a08:	ce 01       	movw	r24, r28
    5a0a:	0e 94 85 2c 	call	0x590a	; 0x590a <u8g_pb8v1_SetPixel>
    5a0e:	13 c0       	rjmp	.+38     	; 0x5a36 <u8g_dev_pb8v1_base_fn+0x82>
    5a10:	ce 01       	movw	r24, r28
    5a12:	0e 94 e1 2e 	call	0x5dc2	; 0x5dc2 <u8g_page_Next>
    5a16:	88 23       	and	r24, r24
    5a18:	81 f0       	breq	.+32     	; 0x5a3a <u8g_dev_pb8v1_base_fn+0x86>
    5a1a:	ce 01       	movw	r24, r28
    5a1c:	0e 94 1d 2c 	call	0x583a	; 0x583a <u8g_pb_Clear>
    5a20:	0a c0       	rjmp	.+20     	; 0x5a36 <u8g_dev_pb8v1_base_fn+0x82>
    5a22:	b9 01       	movw	r22, r18
    5a24:	ce 01       	movw	r24, r28
    5a26:	0e 94 42 2c 	call	0x5884	; 0x5884 <u8g_pb_GetPageBox>
    5a2a:	05 c0       	rjmp	.+10     	; 0x5a36 <u8g_dev_pb8v1_base_fn+0x82>
    5a2c:	8d 81       	ldd	r24, Y+5	; 0x05
    5a2e:	01 c0       	rjmp	.+2      	; 0x5a32 <u8g_dev_pb8v1_base_fn+0x7e>
    5a30:	89 81       	ldd	r24, Y+1	; 0x01
    5a32:	f8 01       	movw	r30, r16
    5a34:	80 83       	st	Z, r24
    5a36:	81 e0       	ldi	r24, 0x01	; 1
    5a38:	01 c0       	rjmp	.+2      	; 0x5a3c <u8g_dev_pb8v1_base_fn+0x88>
    5a3a:	80 e0       	ldi	r24, 0x00	; 0
    5a3c:	df 91       	pop	r29
    5a3e:	cf 91       	pop	r28
    5a40:	1f 91       	pop	r17
    5a42:	0f 91       	pop	r16
    5a44:	08 95       	ret

00005a46 <u8g_state_dummy_cb>:
    5a46:	08 95       	ret

00005a48 <u8g_InitCom>:
    5a48:	db 01       	movw	r26, r22
    5a4a:	14 96       	adiw	r26, 0x04	; 4
    5a4c:	ed 91       	ld	r30, X+
    5a4e:	fc 91       	ld	r31, X
    5a50:	15 97       	sbiw	r26, 0x05	; 5
    5a52:	20 e0       	ldi	r18, 0x00	; 0
    5a54:	30 e0       	ldi	r19, 0x00	; 0
    5a56:	61 e0       	ldi	r22, 0x01	; 1
    5a58:	09 94       	ijmp

00005a5a <u8g_SetChipSelect>:
    5a5a:	db 01       	movw	r26, r22
    5a5c:	14 96       	adiw	r26, 0x04	; 4
    5a5e:	ed 91       	ld	r30, X+
    5a60:	fc 91       	ld	r31, X
    5a62:	15 97       	sbiw	r26, 0x05	; 5
    5a64:	20 e0       	ldi	r18, 0x00	; 0
    5a66:	30 e0       	ldi	r19, 0x00	; 0
    5a68:	63 e0       	ldi	r22, 0x03	; 3
    5a6a:	09 94       	ijmp

00005a6c <u8g_SetResetLow>:
    5a6c:	db 01       	movw	r26, r22
    5a6e:	14 96       	adiw	r26, 0x04	; 4
    5a70:	ed 91       	ld	r30, X+
    5a72:	fc 91       	ld	r31, X
    5a74:	15 97       	sbiw	r26, 0x05	; 5
    5a76:	20 e0       	ldi	r18, 0x00	; 0
    5a78:	30 e0       	ldi	r19, 0x00	; 0
    5a7a:	40 e0       	ldi	r20, 0x00	; 0
    5a7c:	64 e0       	ldi	r22, 0x04	; 4
    5a7e:	09 94       	ijmp

00005a80 <u8g_SetResetHigh>:
    5a80:	db 01       	movw	r26, r22
    5a82:	14 96       	adiw	r26, 0x04	; 4
    5a84:	ed 91       	ld	r30, X+
    5a86:	fc 91       	ld	r31, X
    5a88:	15 97       	sbiw	r26, 0x05	; 5
    5a8a:	20 e0       	ldi	r18, 0x00	; 0
    5a8c:	30 e0       	ldi	r19, 0x00	; 0
    5a8e:	41 e0       	ldi	r20, 0x01	; 1
    5a90:	64 e0       	ldi	r22, 0x04	; 4
    5a92:	09 94       	ijmp

00005a94 <u8g_SetAddress>:
    5a94:	db 01       	movw	r26, r22
    5a96:	14 96       	adiw	r26, 0x04	; 4
    5a98:	ed 91       	ld	r30, X+
    5a9a:	fc 91       	ld	r31, X
    5a9c:	15 97       	sbiw	r26, 0x05	; 5
    5a9e:	20 e0       	ldi	r18, 0x00	; 0
    5aa0:	30 e0       	ldi	r19, 0x00	; 0
    5aa2:	62 e0       	ldi	r22, 0x02	; 2
    5aa4:	09 94       	ijmp

00005aa6 <u8g_WriteByte>:
    5aa6:	db 01       	movw	r26, r22
    5aa8:	14 96       	adiw	r26, 0x04	; 4
    5aaa:	ed 91       	ld	r30, X+
    5aac:	fc 91       	ld	r31, X
    5aae:	15 97       	sbiw	r26, 0x05	; 5
    5ab0:	20 e0       	ldi	r18, 0x00	; 0
    5ab2:	30 e0       	ldi	r19, 0x00	; 0
    5ab4:	65 e0       	ldi	r22, 0x05	; 5
    5ab6:	09 94       	ijmp

00005ab8 <u8g_WriteSequence>:
    5ab8:	db 01       	movw	r26, r22
    5aba:	14 96       	adiw	r26, 0x04	; 4
    5abc:	ed 91       	ld	r30, X+
    5abe:	fc 91       	ld	r31, X
    5ac0:	15 97       	sbiw	r26, 0x05	; 5
    5ac2:	66 e0       	ldi	r22, 0x06	; 6
    5ac4:	09 94       	ijmp

00005ac6 <u8g_WriteEscSeqP>:
    5ac6:	af 92       	push	r10
    5ac8:	bf 92       	push	r11
    5aca:	cf 92       	push	r12
    5acc:	df 92       	push	r13
    5ace:	ef 92       	push	r14
    5ad0:	ff 92       	push	r15
    5ad2:	0f 93       	push	r16
    5ad4:	1f 93       	push	r17
    5ad6:	cf 93       	push	r28
    5ad8:	df 93       	push	r29
    5ada:	1f 92       	push	r1
    5adc:	cd b7       	in	r28, 0x3d	; 61
    5ade:	de b7       	in	r29, 0x3e	; 62
    5ae0:	5c 01       	movw	r10, r24
    5ae2:	8b 01       	movw	r16, r22
    5ae4:	7a 01       	movw	r14, r20
    5ae6:	80 e0       	ldi	r24, 0x00	; 0
    5ae8:	f7 01       	movw	r30, r14
    5aea:	44 91       	lpm	r20, Z
    5aec:	81 11       	cpse	r24, r1
    5aee:	09 c0       	rjmp	.+18     	; 0x5b02 <u8g_WriteEscSeqP+0x3c>
    5af0:	4f 3f       	cpi	r20, 0xFF	; 255
    5af2:	d9 f1       	breq	.+118    	; 0x5b6a <u8g_WriteEscSeqP+0xa4>
    5af4:	b8 01       	movw	r22, r16
    5af6:	c5 01       	movw	r24, r10
    5af8:	0e 94 53 2d 	call	0x5aa6	; 0x5aa6 <u8g_WriteByte>
    5afc:	81 11       	cpse	r24, r1
    5afe:	2e c0       	rjmp	.+92     	; 0x5b5c <u8g_WriteEscSeqP+0x96>
    5b00:	39 c0       	rjmp	.+114    	; 0x5b74 <u8g_WriteEscSeqP+0xae>
    5b02:	4f 3f       	cpi	r20, 0xFF	; 255
    5b04:	b9 f3       	breq	.-18     	; 0x5af4 <u8g_WriteEscSeqP+0x2e>
    5b06:	4e 3f       	cpi	r20, 0xFE	; 254
    5b08:	b9 f1       	breq	.+110    	; 0x5b78 <u8g_WriteEscSeqP+0xb2>
    5b0a:	40 3f       	cpi	r20, 0xF0	; 240
    5b0c:	38 f5       	brcc	.+78     	; 0x5b5c <u8g_WriteEscSeqP+0x96>
    5b0e:	40 3e       	cpi	r20, 0xE0	; 224
    5b10:	30 f0       	brcs	.+12     	; 0x5b1e <u8g_WriteEscSeqP+0x58>
    5b12:	4f 70       	andi	r20, 0x0F	; 15
    5b14:	b8 01       	movw	r22, r16
    5b16:	c5 01       	movw	r24, r10
    5b18:	0e 94 4a 2d 	call	0x5a94	; 0x5a94 <u8g_SetAddress>
    5b1c:	1f c0       	rjmp	.+62     	; 0x5b5c <u8g_WriteEscSeqP+0x96>
    5b1e:	40 3d       	cpi	r20, 0xD0	; 208
    5b20:	30 f0       	brcs	.+12     	; 0x5b2e <u8g_WriteEscSeqP+0x68>
    5b22:	4f 70       	andi	r20, 0x0F	; 15
    5b24:	b8 01       	movw	r22, r16
    5b26:	c5 01       	movw	r24, r10
    5b28:	0e 94 2d 2d 	call	0x5a5a	; 0x5a5a <u8g_SetChipSelect>
    5b2c:	17 c0       	rjmp	.+46     	; 0x5b5c <u8g_WriteEscSeqP+0x96>
    5b2e:	40 3c       	cpi	r20, 0xC0	; 192
    5b30:	b8 f0       	brcs	.+46     	; 0x5b60 <u8g_WriteEscSeqP+0x9a>
    5b32:	b8 01       	movw	r22, r16
    5b34:	c5 01       	movw	r24, r10
    5b36:	49 83       	std	Y+1, r20	; 0x01
    5b38:	0e 94 36 2d 	call	0x5a6c	; 0x5a6c <u8g_SetResetLow>
    5b3c:	49 81       	ldd	r20, Y+1	; 0x01
    5b3e:	42 95       	swap	r20
    5b40:	40 7f       	andi	r20, 0xF0	; 240
    5b42:	4e 5f       	subi	r20, 0xFE	; 254
    5b44:	c4 2e       	mov	r12, r20
    5b46:	d1 2c       	mov	r13, r1
    5b48:	c6 01       	movw	r24, r12
    5b4a:	0e 94 d0 2e 	call	0x5da0	; 0x5da0 <u8g_Delay>
    5b4e:	b8 01       	movw	r22, r16
    5b50:	c5 01       	movw	r24, r10
    5b52:	0e 94 40 2d 	call	0x5a80	; 0x5a80 <u8g_SetResetHigh>
    5b56:	c6 01       	movw	r24, r12
    5b58:	0e 94 d0 2e 	call	0x5da0	; 0x5da0 <u8g_Delay>
    5b5c:	80 e0       	ldi	r24, 0x00	; 0
    5b5e:	06 c0       	rjmp	.+12     	; 0x5b6c <u8g_WriteEscSeqP+0xa6>
    5b60:	47 fd       	sbrc	r20, 7
    5b62:	fc cf       	rjmp	.-8      	; 0x5b5c <u8g_WriteEscSeqP+0x96>
    5b64:	84 2f       	mov	r24, r20
    5b66:	90 e0       	ldi	r25, 0x00	; 0
    5b68:	f7 cf       	rjmp	.-18     	; 0x5b58 <u8g_WriteEscSeqP+0x92>
    5b6a:	81 e0       	ldi	r24, 0x01	; 1
    5b6c:	ff ef       	ldi	r31, 0xFF	; 255
    5b6e:	ef 1a       	sub	r14, r31
    5b70:	ff 0a       	sbc	r15, r31
    5b72:	ba cf       	rjmp	.-140    	; 0x5ae8 <u8g_WriteEscSeqP+0x22>
    5b74:	80 e0       	ldi	r24, 0x00	; 0
    5b76:	01 c0       	rjmp	.+2      	; 0x5b7a <u8g_WriteEscSeqP+0xb4>
    5b78:	81 e0       	ldi	r24, 0x01	; 1
    5b7a:	0f 90       	pop	r0
    5b7c:	df 91       	pop	r29
    5b7e:	cf 91       	pop	r28
    5b80:	1f 91       	pop	r17
    5b82:	0f 91       	pop	r16
    5b84:	ff 90       	pop	r15
    5b86:	ef 90       	pop	r14
    5b88:	df 90       	pop	r13
    5b8a:	cf 90       	pop	r12
    5b8c:	bf 90       	pop	r11
    5b8e:	af 90       	pop	r10
    5b90:	08 95       	ret

00005b92 <u8g_com_arduino_ssd_start_sequence>:
    5b92:	cf 93       	push	r28
    5b94:	df 93       	push	r29
    5b96:	ec 01       	movw	r28, r24
    5b98:	8b a5       	ldd	r24, Y+43	; 0x2b
    5b9a:	88 23       	and	r24, r24
    5b9c:	81 f0       	breq	.+32     	; 0x5bbe <u8g_com_arduino_ssd_start_sequence+0x2c>
    5b9e:	88 e7       	ldi	r24, 0x78	; 120
    5ba0:	0e 94 7c 2e 	call	0x5cf8	; 0x5cf8 <u8g_i2c_start>
    5ba4:	88 23       	and	r24, r24
    5ba6:	69 f0       	breq	.+26     	; 0x5bc2 <u8g_com_arduino_ssd_start_sequence+0x30>
    5ba8:	8e a1       	ldd	r24, Y+38	; 0x26
    5baa:	81 11       	cpse	r24, r1
    5bac:	06 c0       	rjmp	.+12     	; 0x5bba <u8g_com_arduino_ssd_start_sequence+0x28>
    5bae:	0e 94 ad 2e 	call	0x5d5a	; 0x5d5a <u8g_i2c_send_byte>
    5bb2:	88 23       	and	r24, r24
    5bb4:	31 f0       	breq	.+12     	; 0x5bc2 <u8g_com_arduino_ssd_start_sequence+0x30>
    5bb6:	1b a6       	std	Y+43, r1	; 0x2b
    5bb8:	02 c0       	rjmp	.+4      	; 0x5bbe <u8g_com_arduino_ssd_start_sequence+0x2c>
    5bba:	80 e4       	ldi	r24, 0x40	; 64
    5bbc:	f8 cf       	rjmp	.-16     	; 0x5bae <u8g_com_arduino_ssd_start_sequence+0x1c>
    5bbe:	81 e0       	ldi	r24, 0x01	; 1
    5bc0:	01 c0       	rjmp	.+2      	; 0x5bc4 <u8g_com_arduino_ssd_start_sequence+0x32>
    5bc2:	80 e0       	ldi	r24, 0x00	; 0
    5bc4:	df 91       	pop	r29
    5bc6:	cf 91       	pop	r28
    5bc8:	08 95       	ret

00005bca <u8g_com_arduino_ssd_i2c_fn>:
    5bca:	1f 93       	push	r17
    5bcc:	cf 93       	push	r28
    5bce:	df 93       	push	r29
    5bd0:	14 2f       	mov	r17, r20
    5bd2:	e9 01       	movw	r28, r18
    5bd4:	63 30       	cpi	r22, 0x03	; 3
    5bd6:	b9 f0       	breq	.+46     	; 0x5c06 <u8g_com_arduino_ssd_i2c_fn+0x3c>
    5bd8:	50 f4       	brcc	.+20     	; 0x5bee <u8g_com_arduino_ssd_i2c_fn+0x24>
    5bda:	61 30       	cpi	r22, 0x01	; 1
    5bdc:	79 f0       	breq	.+30     	; 0x5bfc <u8g_com_arduino_ssd_i2c_fn+0x32>
    5bde:	62 30       	cpi	r22, 0x02	; 2
    5be0:	09 f0       	breq	.+2      	; 0x5be4 <u8g_com_arduino_ssd_i2c_fn+0x1a>
    5be2:	43 c0       	rjmp	.+134    	; 0x5c6a <u8g_com_arduino_ssd_i2c_fn+0xa0>
    5be4:	fc 01       	movw	r30, r24
    5be6:	46 a3       	std	Z+38, r20	; 0x26
    5be8:	21 e0       	ldi	r18, 0x01	; 1
    5bea:	23 a7       	std	Z+43, r18	; 0x2b
    5bec:	3e c0       	rjmp	.+124    	; 0x5c6a <u8g_com_arduino_ssd_i2c_fn+0xa0>
    5bee:	66 30       	cpi	r22, 0x06	; 6
    5bf0:	01 f1       	breq	.+64     	; 0x5c32 <u8g_com_arduino_ssd_i2c_fn+0x68>
    5bf2:	67 30       	cpi	r22, 0x07	; 7
    5bf4:	59 f1       	breq	.+86     	; 0x5c4c <u8g_com_arduino_ssd_i2c_fn+0x82>
    5bf6:	65 30       	cpi	r22, 0x05	; 5
    5bf8:	c1 f5       	brne	.+112    	; 0x5c6a <u8g_com_arduino_ssd_i2c_fn+0xa0>
    5bfa:	0e c0       	rjmp	.+28     	; 0x5c18 <u8g_com_arduino_ssd_i2c_fn+0x4e>
    5bfc:	fc 01       	movw	r30, r24
    5bfe:	86 a5       	ldd	r24, Z+46	; 0x2e
    5c00:	0e 94 4a 2e 	call	0x5c94	; 0x5c94 <u8g_i2c_init>
    5c04:	32 c0       	rjmp	.+100    	; 0x5c6a <u8g_com_arduino_ssd_i2c_fn+0xa0>
    5c06:	fc 01       	movw	r30, r24
    5c08:	16 a2       	std	Z+38, r1	; 0x26
    5c0a:	21 e0       	ldi	r18, 0x01	; 1
    5c0c:	23 a7       	std	Z+43, r18	; 0x2b
    5c0e:	41 11       	cpse	r20, r1
    5c10:	2c c0       	rjmp	.+88     	; 0x5c6a <u8g_com_arduino_ssd_i2c_fn+0xa0>
    5c12:	0e 94 c9 2e 	call	0x5d92	; 0x5d92 <u8g_i2c_stop>
    5c16:	29 c0       	rjmp	.+82     	; 0x5c6a <u8g_com_arduino_ssd_i2c_fn+0xa0>
    5c18:	0e 94 c9 2d 	call	0x5b92	; 0x5b92 <u8g_com_arduino_ssd_start_sequence>
    5c1c:	81 11       	cpse	r24, r1
    5c1e:	03 c0       	rjmp	.+6      	; 0x5c26 <u8g_com_arduino_ssd_i2c_fn+0x5c>
    5c20:	0e 94 c9 2e 	call	0x5d92	; 0x5d92 <u8g_i2c_stop>
    5c24:	24 c0       	rjmp	.+72     	; 0x5c6e <u8g_com_arduino_ssd_i2c_fn+0xa4>
    5c26:	81 2f       	mov	r24, r17
    5c28:	0e 94 ad 2e 	call	0x5d5a	; 0x5d5a <u8g_i2c_send_byte>
    5c2c:	81 11       	cpse	r24, r1
    5c2e:	1d c0       	rjmp	.+58     	; 0x5c6a <u8g_com_arduino_ssd_i2c_fn+0xa0>
    5c30:	f7 cf       	rjmp	.-18     	; 0x5c20 <u8g_com_arduino_ssd_i2c_fn+0x56>
    5c32:	0e 94 c9 2d 	call	0x5b92	; 0x5b92 <u8g_com_arduino_ssd_start_sequence>
    5c36:	88 23       	and	r24, r24
    5c38:	99 f3       	breq	.-26     	; 0x5c20 <u8g_com_arduino_ssd_i2c_fn+0x56>
    5c3a:	11 23       	and	r17, r17
    5c3c:	b1 f0       	breq	.+44     	; 0x5c6a <u8g_com_arduino_ssd_i2c_fn+0xa0>
    5c3e:	89 91       	ld	r24, Y+
    5c40:	0e 94 ad 2e 	call	0x5d5a	; 0x5d5a <u8g_i2c_send_byte>
    5c44:	88 23       	and	r24, r24
    5c46:	61 f3       	breq	.-40     	; 0x5c20 <u8g_com_arduino_ssd_i2c_fn+0x56>
    5c48:	11 50       	subi	r17, 0x01	; 1
    5c4a:	f7 cf       	rjmp	.-18     	; 0x5c3a <u8g_com_arduino_ssd_i2c_fn+0x70>
    5c4c:	0e 94 c9 2d 	call	0x5b92	; 0x5b92 <u8g_com_arduino_ssd_start_sequence>
    5c50:	88 23       	and	r24, r24
    5c52:	31 f3       	breq	.-52     	; 0x5c20 <u8g_com_arduino_ssd_i2c_fn+0x56>
    5c54:	11 23       	and	r17, r17
    5c56:	49 f0       	breq	.+18     	; 0x5c6a <u8g_com_arduino_ssd_i2c_fn+0xa0>
    5c58:	fe 01       	movw	r30, r28
    5c5a:	84 91       	lpm	r24, Z
    5c5c:	0e 94 ad 2e 	call	0x5d5a	; 0x5d5a <u8g_i2c_send_byte>
    5c60:	88 23       	and	r24, r24
    5c62:	29 f0       	breq	.+10     	; 0x5c6e <u8g_com_arduino_ssd_i2c_fn+0xa4>
    5c64:	21 96       	adiw	r28, 0x01	; 1
    5c66:	11 50       	subi	r17, 0x01	; 1
    5c68:	f5 cf       	rjmp	.-22     	; 0x5c54 <u8g_com_arduino_ssd_i2c_fn+0x8a>
    5c6a:	81 e0       	ldi	r24, 0x01	; 1
    5c6c:	01 c0       	rjmp	.+2      	; 0x5c70 <u8g_com_arduino_ssd_i2c_fn+0xa6>
    5c6e:	80 e0       	ldi	r24, 0x00	; 0
    5c70:	df 91       	pop	r29
    5c72:	cf 91       	pop	r28
    5c74:	1f 91       	pop	r17
    5c76:	08 95       	ret

00005c78 <u8g_i2c_set_error>:
    5c78:	90 91 9a 02 	lds	r25, 0x029A
    5c7c:	91 11       	cpse	r25, r1
    5c7e:	04 c0       	rjmp	.+8      	; 0x5c88 <u8g_i2c_set_error+0x10>
    5c80:	80 93 9a 02 	sts	0x029A, r24
    5c84:	60 93 98 02 	sts	0x0298, r22
    5c88:	08 95       	ret

00005c8a <u8g_i2c_clear_error>:
    5c8a:	10 92 9a 02 	sts	0x029A, r1
    5c8e:	10 92 98 02 	sts	0x0298, r1
    5c92:	08 95       	ret

00005c94 <u8g_i2c_init>:
    5c94:	80 93 99 02 	sts	0x0299, r24
    5c98:	10 92 b9 00 	sts	0x00B9, r1
    5c9c:	84 ff       	sbrs	r24, 4
    5c9e:	02 c0       	rjmp	.+4      	; 0x5ca4 <u8g_i2c_init+0x10>
    5ca0:	8c e0       	ldi	r24, 0x0C	; 12
    5ca2:	01 c0       	rjmp	.+2      	; 0x5ca6 <u8g_i2c_init+0x12>
    5ca4:	88 e4       	ldi	r24, 0x48	; 72
    5ca6:	80 93 b8 00 	sts	0x00B8, r24
    5caa:	0c 94 45 2e 	jmp	0x5c8a	; 0x5c8a <u8g_i2c_clear_error>

00005cae <u8g_i2c_wait>:
    5cae:	cf 93       	push	r28
    5cb0:	df 93       	push	r29
    5cb2:	00 d0       	rcall	.+0      	; 0x5cb4 <u8g_i2c_wait+0x6>
    5cb4:	cd b7       	in	r28, 0x3d	; 61
    5cb6:	de b7       	in	r29, 0x3e	; 62
    5cb8:	20 ed       	ldi	r18, 0xD0	; 208
    5cba:	37 e0       	ldi	r19, 0x07	; 7
    5cbc:	3a 83       	std	Y+2, r19	; 0x02
    5cbe:	29 83       	std	Y+1, r18	; 0x01
    5cc0:	90 91 bc 00 	lds	r25, 0x00BC
    5cc4:	98 23       	and	r25, r24
    5cc6:	91 f4       	brne	.+36     	; 0x5cec <u8g_i2c_wait+0x3e>
    5cc8:	29 81       	ldd	r18, Y+1	; 0x01
    5cca:	3a 81       	ldd	r19, Y+2	; 0x02
    5ccc:	23 2b       	or	r18, r19
    5cce:	49 f4       	brne	.+18     	; 0x5ce2 <u8g_i2c_wait+0x34>
    5cd0:	80 91 99 02 	lds	r24, 0x0299
    5cd4:	81 fd       	sbrc	r24, 1
    5cd6:	0a c0       	rjmp	.+20     	; 0x5cec <u8g_i2c_wait+0x3e>
    5cd8:	81 e0       	ldi	r24, 0x01	; 1
    5cda:	0e 94 3c 2e 	call	0x5c78	; 0x5c78 <u8g_i2c_set_error>
    5cde:	80 e0       	ldi	r24, 0x00	; 0
    5ce0:	06 c0       	rjmp	.+12     	; 0x5cee <u8g_i2c_wait+0x40>
    5ce2:	29 81       	ldd	r18, Y+1	; 0x01
    5ce4:	3a 81       	ldd	r19, Y+2	; 0x02
    5ce6:	21 50       	subi	r18, 0x01	; 1
    5ce8:	31 09       	sbc	r19, r1
    5cea:	e8 cf       	rjmp	.-48     	; 0x5cbc <u8g_i2c_wait+0xe>
    5cec:	81 e0       	ldi	r24, 0x01	; 1
    5cee:	0f 90       	pop	r0
    5cf0:	0f 90       	pop	r0
    5cf2:	df 91       	pop	r29
    5cf4:	cf 91       	pop	r28
    5cf6:	08 95       	ret

00005cf8 <u8g_i2c_start>:
    5cf8:	cf 93       	push	r28
    5cfa:	c8 2f       	mov	r28, r24
    5cfc:	84 ea       	ldi	r24, 0xA4	; 164
    5cfe:	80 93 bc 00 	sts	0x00BC, r24
    5d02:	61 e0       	ldi	r22, 0x01	; 1
    5d04:	80 e8       	ldi	r24, 0x80	; 128
    5d06:	0e 94 57 2e 	call	0x5cae	; 0x5cae <u8g_i2c_wait>
    5d0a:	88 23       	and	r24, r24
    5d0c:	09 f1       	breq	.+66     	; 0x5d50 <u8g_i2c_start+0x58>
    5d0e:	90 91 b9 00 	lds	r25, 0x00B9
    5d12:	98 7f       	andi	r25, 0xF8	; 248
    5d14:	98 30       	cpi	r25, 0x08	; 8
    5d16:	21 f0       	breq	.+8      	; 0x5d20 <u8g_i2c_start+0x28>
    5d18:	90 31       	cpi	r25, 0x10	; 16
    5d1a:	11 f0       	breq	.+4      	; 0x5d20 <u8g_i2c_start+0x28>
    5d1c:	61 e0       	ldi	r22, 0x01	; 1
    5d1e:	15 c0       	rjmp	.+42     	; 0x5d4a <u8g_i2c_start+0x52>
    5d20:	c0 93 bb 00 	sts	0x00BB, r28
    5d24:	84 e8       	ldi	r24, 0x84	; 132
    5d26:	80 93 bc 00 	sts	0x00BC, r24
    5d2a:	62 e0       	ldi	r22, 0x02	; 2
    5d2c:	80 e8       	ldi	r24, 0x80	; 128
    5d2e:	0e 94 57 2e 	call	0x5cae	; 0x5cae <u8g_i2c_wait>
    5d32:	88 23       	and	r24, r24
    5d34:	69 f0       	breq	.+26     	; 0x5d50 <u8g_i2c_start+0x58>
    5d36:	80 91 99 02 	lds	r24, 0x0299
    5d3a:	81 fd       	sbrc	r24, 1
    5d3c:	0b c0       	rjmp	.+22     	; 0x5d54 <u8g_i2c_start+0x5c>
    5d3e:	80 91 b9 00 	lds	r24, 0x00B9
    5d42:	88 7f       	andi	r24, 0xF8	; 248
    5d44:	88 31       	cpi	r24, 0x18	; 24
    5d46:	31 f0       	breq	.+12     	; 0x5d54 <u8g_i2c_start+0x5c>
    5d48:	62 e0       	ldi	r22, 0x02	; 2
    5d4a:	82 e0       	ldi	r24, 0x02	; 2
    5d4c:	0e 94 3c 2e 	call	0x5c78	; 0x5c78 <u8g_i2c_set_error>
    5d50:	80 e0       	ldi	r24, 0x00	; 0
    5d52:	01 c0       	rjmp	.+2      	; 0x5d56 <u8g_i2c_start+0x5e>
    5d54:	81 e0       	ldi	r24, 0x01	; 1
    5d56:	cf 91       	pop	r28
    5d58:	08 95       	ret

00005d5a <u8g_i2c_send_byte>:
    5d5a:	80 93 bb 00 	sts	0x00BB, r24
    5d5e:	84 e8       	ldi	r24, 0x84	; 132
    5d60:	80 93 bc 00 	sts	0x00BC, r24
    5d64:	63 e0       	ldi	r22, 0x03	; 3
    5d66:	80 e8       	ldi	r24, 0x80	; 128
    5d68:	0e 94 57 2e 	call	0x5cae	; 0x5cae <u8g_i2c_wait>
    5d6c:	88 23       	and	r24, r24
    5d6e:	69 f0       	breq	.+26     	; 0x5d8a <u8g_i2c_send_byte+0x30>
    5d70:	80 91 99 02 	lds	r24, 0x0299
    5d74:	81 fd       	sbrc	r24, 1
    5d76:	0b c0       	rjmp	.+22     	; 0x5d8e <u8g_i2c_send_byte+0x34>
    5d78:	80 91 b9 00 	lds	r24, 0x00B9
    5d7c:	88 7f       	andi	r24, 0xF8	; 248
    5d7e:	88 32       	cpi	r24, 0x28	; 40
    5d80:	31 f0       	breq	.+12     	; 0x5d8e <u8g_i2c_send_byte+0x34>
    5d82:	63 e0       	ldi	r22, 0x03	; 3
    5d84:	82 e0       	ldi	r24, 0x02	; 2
    5d86:	0e 94 3c 2e 	call	0x5c78	; 0x5c78 <u8g_i2c_set_error>
    5d8a:	80 e0       	ldi	r24, 0x00	; 0
    5d8c:	08 95       	ret
    5d8e:	81 e0       	ldi	r24, 0x01	; 1
    5d90:	08 95       	ret

00005d92 <u8g_i2c_stop>:
    5d92:	84 e9       	ldi	r24, 0x94	; 148
    5d94:	80 93 bc 00 	sts	0x00BC, r24
    5d98:	64 e0       	ldi	r22, 0x04	; 4
    5d9a:	80 e1       	ldi	r24, 0x10	; 16
    5d9c:	0c 94 57 2e 	jmp	0x5cae	; 0x5cae <u8g_i2c_wait>

00005da0 <u8g_Delay>:
    milliseconds can be achieved.
 */
void
_delay_loop_2(uint16_t __count)
{
	__asm__ volatile (
    5da0:	2e e9       	ldi	r18, 0x9E	; 158
    5da2:	3f e0       	ldi	r19, 0x0F	; 15
    5da4:	00 97       	sbiw	r24, 0x00	; 0
    5da6:	29 f0       	breq	.+10     	; 0x5db2 <u8g_Delay+0x12>
    5da8:	f9 01       	movw	r30, r18
    5daa:	31 97       	sbiw	r30, 0x01	; 1
    5dac:	f1 f7       	brne	.-4      	; 0x5daa <u8g_Delay+0xa>
    5dae:	01 97       	sbiw	r24, 0x01	; 1
    5db0:	f9 cf       	rjmp	.-14     	; 0x5da4 <u8g_Delay+0x4>
    5db2:	08 95       	ret

00005db4 <u8g_page_First>:
    5db4:	fc 01       	movw	r30, r24
    5db6:	12 82       	std	Z+2, r1	; 0x02
    5db8:	80 81       	ld	r24, Z
    5dba:	81 50       	subi	r24, 0x01	; 1
    5dbc:	83 83       	std	Z+3, r24	; 0x03
    5dbe:	14 82       	std	Z+4, r1	; 0x04
    5dc0:	08 95       	ret

00005dc2 <u8g_page_Next>:
    5dc2:	fc 01       	movw	r30, r24
    5dc4:	20 81       	ld	r18, Z
    5dc6:	82 81       	ldd	r24, Z+2	; 0x02
    5dc8:	82 0f       	add	r24, r18
    5dca:	82 83       	std	Z+2, r24	; 0x02
    5dcc:	91 81       	ldd	r25, Z+1	; 0x01
    5dce:	89 17       	cp	r24, r25
    5dd0:	60 f4       	brcc	.+24     	; 0x5dea <u8g_page_Next+0x28>
    5dd2:	84 81       	ldd	r24, Z+4	; 0x04
    5dd4:	8f 5f       	subi	r24, 0xFF	; 255
    5dd6:	84 83       	std	Z+4, r24	; 0x04
    5dd8:	83 81       	ldd	r24, Z+3	; 0x03
    5dda:	82 0f       	add	r24, r18
    5ddc:	89 17       	cp	r24, r25
    5dde:	10 f0       	brcs	.+4      	; 0x5de4 <u8g_page_Next+0x22>
    5de0:	8f ef       	ldi	r24, 0xFF	; 255
    5de2:	89 0f       	add	r24, r25
    5de4:	83 83       	std	Z+3, r24	; 0x03
    5de6:	81 e0       	ldi	r24, 0x01	; 1
    5de8:	08 95       	ret
    5dea:	80 e0       	ldi	r24, 0x00	; 0
    5dec:	08 95       	ret

00005dee <__mulshisi3>:
    5dee:	b7 ff       	sbrs	r27, 7
    5df0:	0c 94 3e 2f 	jmp	0x5e7c	; 0x5e7c <__muluhisi3>

00005df4 <__mulohisi3>:
    5df4:	0e 94 3e 2f 	call	0x5e7c	; 0x5e7c <__muluhisi3>
    5df8:	82 1b       	sub	r24, r18
    5dfa:	93 0b       	sbc	r25, r19
    5dfc:	08 95       	ret

00005dfe <__udivmodqi4>:
    5dfe:	99 1b       	sub	r25, r25
    5e00:	79 e0       	ldi	r23, 0x09	; 9
    5e02:	04 c0       	rjmp	.+8      	; 0x5e0c <__udivmodqi4_ep>

00005e04 <__udivmodqi4_loop>:
    5e04:	99 1f       	adc	r25, r25
    5e06:	96 17       	cp	r25, r22
    5e08:	08 f0       	brcs	.+2      	; 0x5e0c <__udivmodqi4_ep>
    5e0a:	96 1b       	sub	r25, r22

00005e0c <__udivmodqi4_ep>:
    5e0c:	88 1f       	adc	r24, r24
    5e0e:	7a 95       	dec	r23
    5e10:	c9 f7       	brne	.-14     	; 0x5e04 <__udivmodqi4_loop>
    5e12:	80 95       	com	r24
    5e14:	08 95       	ret

00005e16 <__divmodhi4>:
    5e16:	97 fb       	bst	r25, 7
    5e18:	07 2e       	mov	r0, r23
    5e1a:	16 f4       	brtc	.+4      	; 0x5e20 <__divmodhi4+0xa>
    5e1c:	00 94       	com	r0
    5e1e:	07 d0       	rcall	.+14     	; 0x5e2e <__divmodhi4_neg1>
    5e20:	77 fd       	sbrc	r23, 7
    5e22:	09 d0       	rcall	.+18     	; 0x5e36 <__divmodhi4_neg2>
    5e24:	0e 94 49 2f 	call	0x5e92	; 0x5e92 <__udivmodhi4>
    5e28:	07 fc       	sbrc	r0, 7
    5e2a:	05 d0       	rcall	.+10     	; 0x5e36 <__divmodhi4_neg2>
    5e2c:	3e f4       	brtc	.+14     	; 0x5e3c <__divmodhi4_exit>

00005e2e <__divmodhi4_neg1>:
    5e2e:	90 95       	com	r25
    5e30:	81 95       	neg	r24
    5e32:	9f 4f       	sbci	r25, 0xFF	; 255
    5e34:	08 95       	ret

00005e36 <__divmodhi4_neg2>:
    5e36:	70 95       	com	r23
    5e38:	61 95       	neg	r22
    5e3a:	7f 4f       	sbci	r23, 0xFF	; 255

00005e3c <__divmodhi4_exit>:
    5e3c:	08 95       	ret

00005e3e <__divmodsi4>:
    5e3e:	05 2e       	mov	r0, r21
    5e40:	97 fb       	bst	r25, 7
    5e42:	1e f4       	brtc	.+6      	; 0x5e4a <__divmodsi4+0xc>
    5e44:	00 94       	com	r0
    5e46:	0e 94 36 2f 	call	0x5e6c	; 0x5e6c <__negsi2>
    5e4a:	57 fd       	sbrc	r21, 7
    5e4c:	07 d0       	rcall	.+14     	; 0x5e5c <__divmodsi4_neg2>
    5e4e:	0e 94 5d 2f 	call	0x5eba	; 0x5eba <__udivmodsi4>
    5e52:	07 fc       	sbrc	r0, 7
    5e54:	03 d0       	rcall	.+6      	; 0x5e5c <__divmodsi4_neg2>
    5e56:	4e f4       	brtc	.+18     	; 0x5e6a <__divmodsi4_exit>
    5e58:	0c 94 36 2f 	jmp	0x5e6c	; 0x5e6c <__negsi2>

00005e5c <__divmodsi4_neg2>:
    5e5c:	50 95       	com	r21
    5e5e:	40 95       	com	r20
    5e60:	30 95       	com	r19
    5e62:	21 95       	neg	r18
    5e64:	3f 4f       	sbci	r19, 0xFF	; 255
    5e66:	4f 4f       	sbci	r20, 0xFF	; 255
    5e68:	5f 4f       	sbci	r21, 0xFF	; 255

00005e6a <__divmodsi4_exit>:
    5e6a:	08 95       	ret

00005e6c <__negsi2>:
    5e6c:	90 95       	com	r25
    5e6e:	80 95       	com	r24
    5e70:	70 95       	com	r23
    5e72:	61 95       	neg	r22
    5e74:	7f 4f       	sbci	r23, 0xFF	; 255
    5e76:	8f 4f       	sbci	r24, 0xFF	; 255
    5e78:	9f 4f       	sbci	r25, 0xFF	; 255
    5e7a:	08 95       	ret

00005e7c <__muluhisi3>:
    5e7c:	0e 94 7f 2f 	call	0x5efe	; 0x5efe <__umulhisi3>
    5e80:	a5 9f       	mul	r26, r21
    5e82:	90 0d       	add	r25, r0
    5e84:	b4 9f       	mul	r27, r20
    5e86:	90 0d       	add	r25, r0
    5e88:	a4 9f       	mul	r26, r20
    5e8a:	80 0d       	add	r24, r0
    5e8c:	91 1d       	adc	r25, r1
    5e8e:	11 24       	eor	r1, r1
    5e90:	08 95       	ret

00005e92 <__udivmodhi4>:
    5e92:	aa 1b       	sub	r26, r26
    5e94:	bb 1b       	sub	r27, r27
    5e96:	51 e1       	ldi	r21, 0x11	; 17
    5e98:	07 c0       	rjmp	.+14     	; 0x5ea8 <__udivmodhi4_ep>

00005e9a <__udivmodhi4_loop>:
    5e9a:	aa 1f       	adc	r26, r26
    5e9c:	bb 1f       	adc	r27, r27
    5e9e:	a6 17       	cp	r26, r22
    5ea0:	b7 07       	cpc	r27, r23
    5ea2:	10 f0       	brcs	.+4      	; 0x5ea8 <__udivmodhi4_ep>
    5ea4:	a6 1b       	sub	r26, r22
    5ea6:	b7 0b       	sbc	r27, r23

00005ea8 <__udivmodhi4_ep>:
    5ea8:	88 1f       	adc	r24, r24
    5eaa:	99 1f       	adc	r25, r25
    5eac:	5a 95       	dec	r21
    5eae:	a9 f7       	brne	.-22     	; 0x5e9a <__udivmodhi4_loop>
    5eb0:	80 95       	com	r24
    5eb2:	90 95       	com	r25
    5eb4:	bc 01       	movw	r22, r24
    5eb6:	cd 01       	movw	r24, r26
    5eb8:	08 95       	ret

00005eba <__udivmodsi4>:
    5eba:	a1 e2       	ldi	r26, 0x21	; 33
    5ebc:	1a 2e       	mov	r1, r26
    5ebe:	aa 1b       	sub	r26, r26
    5ec0:	bb 1b       	sub	r27, r27
    5ec2:	fd 01       	movw	r30, r26
    5ec4:	0d c0       	rjmp	.+26     	; 0x5ee0 <__udivmodsi4_ep>

00005ec6 <__udivmodsi4_loop>:
    5ec6:	aa 1f       	adc	r26, r26
    5ec8:	bb 1f       	adc	r27, r27
    5eca:	ee 1f       	adc	r30, r30
    5ecc:	ff 1f       	adc	r31, r31
    5ece:	a2 17       	cp	r26, r18
    5ed0:	b3 07       	cpc	r27, r19
    5ed2:	e4 07       	cpc	r30, r20
    5ed4:	f5 07       	cpc	r31, r21
    5ed6:	20 f0       	brcs	.+8      	; 0x5ee0 <__udivmodsi4_ep>
    5ed8:	a2 1b       	sub	r26, r18
    5eda:	b3 0b       	sbc	r27, r19
    5edc:	e4 0b       	sbc	r30, r20
    5ede:	f5 0b       	sbc	r31, r21

00005ee0 <__udivmodsi4_ep>:
    5ee0:	66 1f       	adc	r22, r22
    5ee2:	77 1f       	adc	r23, r23
    5ee4:	88 1f       	adc	r24, r24
    5ee6:	99 1f       	adc	r25, r25
    5ee8:	1a 94       	dec	r1
    5eea:	69 f7       	brne	.-38     	; 0x5ec6 <__udivmodsi4_loop>
    5eec:	60 95       	com	r22
    5eee:	70 95       	com	r23
    5ef0:	80 95       	com	r24
    5ef2:	90 95       	com	r25
    5ef4:	9b 01       	movw	r18, r22
    5ef6:	ac 01       	movw	r20, r24
    5ef8:	bd 01       	movw	r22, r26
    5efa:	cf 01       	movw	r24, r30
    5efc:	08 95       	ret

00005efe <__umulhisi3>:
    5efe:	a2 9f       	mul	r26, r18
    5f00:	b0 01       	movw	r22, r0
    5f02:	b3 9f       	mul	r27, r19
    5f04:	c0 01       	movw	r24, r0
    5f06:	a3 9f       	mul	r26, r19
    5f08:	70 0d       	add	r23, r0
    5f0a:	81 1d       	adc	r24, r1
    5f0c:	11 24       	eor	r1, r1
    5f0e:	91 1d       	adc	r25, r1
    5f10:	b2 9f       	mul	r27, r18
    5f12:	70 0d       	add	r23, r0
    5f14:	81 1d       	adc	r24, r1
    5f16:	11 24       	eor	r1, r1
    5f18:	91 1d       	adc	r25, r1
    5f1a:	08 95       	ret

00005f1c <__fixsfsi>:
    5f1c:	04 d0       	rcall	.+8      	; 0x5f26 <__fixunssfsi>
    5f1e:	68 94       	set
    5f20:	b1 11       	cpse	r27, r1
    5f22:	8d c0       	rjmp	.+282    	; 0x603e <__fp_szero>
    5f24:	08 95       	ret

00005f26 <__fixunssfsi>:
    5f26:	70 d0       	rcall	.+224    	; 0x6008 <__fp_splitA>
    5f28:	88 f0       	brcs	.+34     	; 0x5f4c <__fixunssfsi+0x26>
    5f2a:	9f 57       	subi	r25, 0x7F	; 127
    5f2c:	90 f0       	brcs	.+36     	; 0x5f52 <__fixunssfsi+0x2c>
    5f2e:	b9 2f       	mov	r27, r25
    5f30:	99 27       	eor	r25, r25
    5f32:	b7 51       	subi	r27, 0x17	; 23
    5f34:	a0 f0       	brcs	.+40     	; 0x5f5e <__fixunssfsi+0x38>
    5f36:	d1 f0       	breq	.+52     	; 0x5f6c <__fixunssfsi+0x46>
    5f38:	66 0f       	add	r22, r22
    5f3a:	77 1f       	adc	r23, r23
    5f3c:	88 1f       	adc	r24, r24
    5f3e:	99 1f       	adc	r25, r25
    5f40:	1a f0       	brmi	.+6      	; 0x5f48 <__fixunssfsi+0x22>
    5f42:	ba 95       	dec	r27
    5f44:	c9 f7       	brne	.-14     	; 0x5f38 <__fixunssfsi+0x12>
    5f46:	12 c0       	rjmp	.+36     	; 0x5f6c <__fixunssfsi+0x46>
    5f48:	b1 30       	cpi	r27, 0x01	; 1
    5f4a:	81 f0       	breq	.+32     	; 0x5f6c <__fixunssfsi+0x46>
    5f4c:	77 d0       	rcall	.+238    	; 0x603c <__fp_zero>
    5f4e:	b1 e0       	ldi	r27, 0x01	; 1
    5f50:	08 95       	ret
    5f52:	74 c0       	rjmp	.+232    	; 0x603c <__fp_zero>
    5f54:	67 2f       	mov	r22, r23
    5f56:	78 2f       	mov	r23, r24
    5f58:	88 27       	eor	r24, r24
    5f5a:	b8 5f       	subi	r27, 0xF8	; 248
    5f5c:	39 f0       	breq	.+14     	; 0x5f6c <__fixunssfsi+0x46>
    5f5e:	b9 3f       	cpi	r27, 0xF9	; 249
    5f60:	cc f3       	brlt	.-14     	; 0x5f54 <__fixunssfsi+0x2e>
    5f62:	86 95       	lsr	r24
    5f64:	77 95       	ror	r23
    5f66:	67 95       	ror	r22
    5f68:	b3 95       	inc	r27
    5f6a:	d9 f7       	brne	.-10     	; 0x5f62 <__fixunssfsi+0x3c>
    5f6c:	3e f4       	brtc	.+14     	; 0x5f7c <__fixunssfsi+0x56>
    5f6e:	90 95       	com	r25
    5f70:	80 95       	com	r24
    5f72:	70 95       	com	r23
    5f74:	61 95       	neg	r22
    5f76:	7f 4f       	sbci	r23, 0xFF	; 255
    5f78:	8f 4f       	sbci	r24, 0xFF	; 255
    5f7a:	9f 4f       	sbci	r25, 0xFF	; 255
    5f7c:	08 95       	ret

00005f7e <__floatunsisf>:
    5f7e:	e8 94       	clt
    5f80:	09 c0       	rjmp	.+18     	; 0x5f94 <__floatsisf+0x12>

00005f82 <__floatsisf>:
    5f82:	97 fb       	bst	r25, 7
    5f84:	3e f4       	brtc	.+14     	; 0x5f94 <__floatsisf+0x12>
    5f86:	90 95       	com	r25
    5f88:	80 95       	com	r24
    5f8a:	70 95       	com	r23
    5f8c:	61 95       	neg	r22
    5f8e:	7f 4f       	sbci	r23, 0xFF	; 255
    5f90:	8f 4f       	sbci	r24, 0xFF	; 255
    5f92:	9f 4f       	sbci	r25, 0xFF	; 255
    5f94:	99 23       	and	r25, r25
    5f96:	a9 f0       	breq	.+42     	; 0x5fc2 <__floatsisf+0x40>
    5f98:	f9 2f       	mov	r31, r25
    5f9a:	96 e9       	ldi	r25, 0x96	; 150
    5f9c:	bb 27       	eor	r27, r27
    5f9e:	93 95       	inc	r25
    5fa0:	f6 95       	lsr	r31
    5fa2:	87 95       	ror	r24
    5fa4:	77 95       	ror	r23
    5fa6:	67 95       	ror	r22
    5fa8:	b7 95       	ror	r27
    5faa:	f1 11       	cpse	r31, r1
    5fac:	f8 cf       	rjmp	.-16     	; 0x5f9e <__floatsisf+0x1c>
    5fae:	fa f4       	brpl	.+62     	; 0x5fee <__floatsisf+0x6c>
    5fb0:	bb 0f       	add	r27, r27
    5fb2:	11 f4       	brne	.+4      	; 0x5fb8 <__floatsisf+0x36>
    5fb4:	60 ff       	sbrs	r22, 0
    5fb6:	1b c0       	rjmp	.+54     	; 0x5fee <__floatsisf+0x6c>
    5fb8:	6f 5f       	subi	r22, 0xFF	; 255
    5fba:	7f 4f       	sbci	r23, 0xFF	; 255
    5fbc:	8f 4f       	sbci	r24, 0xFF	; 255
    5fbe:	9f 4f       	sbci	r25, 0xFF	; 255
    5fc0:	16 c0       	rjmp	.+44     	; 0x5fee <__floatsisf+0x6c>
    5fc2:	88 23       	and	r24, r24
    5fc4:	11 f0       	breq	.+4      	; 0x5fca <__floatsisf+0x48>
    5fc6:	96 e9       	ldi	r25, 0x96	; 150
    5fc8:	11 c0       	rjmp	.+34     	; 0x5fec <__floatsisf+0x6a>
    5fca:	77 23       	and	r23, r23
    5fcc:	21 f0       	breq	.+8      	; 0x5fd6 <__floatsisf+0x54>
    5fce:	9e e8       	ldi	r25, 0x8E	; 142
    5fd0:	87 2f       	mov	r24, r23
    5fd2:	76 2f       	mov	r23, r22
    5fd4:	05 c0       	rjmp	.+10     	; 0x5fe0 <__floatsisf+0x5e>
    5fd6:	66 23       	and	r22, r22
    5fd8:	71 f0       	breq	.+28     	; 0x5ff6 <__floatsisf+0x74>
    5fda:	96 e8       	ldi	r25, 0x86	; 134
    5fdc:	86 2f       	mov	r24, r22
    5fde:	70 e0       	ldi	r23, 0x00	; 0
    5fe0:	60 e0       	ldi	r22, 0x00	; 0
    5fe2:	2a f0       	brmi	.+10     	; 0x5fee <__floatsisf+0x6c>
    5fe4:	9a 95       	dec	r25
    5fe6:	66 0f       	add	r22, r22
    5fe8:	77 1f       	adc	r23, r23
    5fea:	88 1f       	adc	r24, r24
    5fec:	da f7       	brpl	.-10     	; 0x5fe4 <__floatsisf+0x62>
    5fee:	88 0f       	add	r24, r24
    5ff0:	96 95       	lsr	r25
    5ff2:	87 95       	ror	r24
    5ff4:	97 f9       	bld	r25, 7
    5ff6:	08 95       	ret

00005ff8 <__fp_split3>:
    5ff8:	57 fd       	sbrc	r21, 7
    5ffa:	90 58       	subi	r25, 0x80	; 128
    5ffc:	44 0f       	add	r20, r20
    5ffe:	55 1f       	adc	r21, r21
    6000:	59 f0       	breq	.+22     	; 0x6018 <__fp_splitA+0x10>
    6002:	5f 3f       	cpi	r21, 0xFF	; 255
    6004:	71 f0       	breq	.+28     	; 0x6022 <__fp_splitA+0x1a>
    6006:	47 95       	ror	r20

00006008 <__fp_splitA>:
    6008:	88 0f       	add	r24, r24
    600a:	97 fb       	bst	r25, 7
    600c:	99 1f       	adc	r25, r25
    600e:	61 f0       	breq	.+24     	; 0x6028 <__fp_splitA+0x20>
    6010:	9f 3f       	cpi	r25, 0xFF	; 255
    6012:	79 f0       	breq	.+30     	; 0x6032 <__fp_splitA+0x2a>
    6014:	87 95       	ror	r24
    6016:	08 95       	ret
    6018:	12 16       	cp	r1, r18
    601a:	13 06       	cpc	r1, r19
    601c:	14 06       	cpc	r1, r20
    601e:	55 1f       	adc	r21, r21
    6020:	f2 cf       	rjmp	.-28     	; 0x6006 <__fp_split3+0xe>
    6022:	46 95       	lsr	r20
    6024:	f1 df       	rcall	.-30     	; 0x6008 <__fp_splitA>
    6026:	08 c0       	rjmp	.+16     	; 0x6038 <__fp_splitA+0x30>
    6028:	16 16       	cp	r1, r22
    602a:	17 06       	cpc	r1, r23
    602c:	18 06       	cpc	r1, r24
    602e:	99 1f       	adc	r25, r25
    6030:	f1 cf       	rjmp	.-30     	; 0x6014 <__fp_splitA+0xc>
    6032:	86 95       	lsr	r24
    6034:	71 05       	cpc	r23, r1
    6036:	61 05       	cpc	r22, r1
    6038:	08 94       	sec
    603a:	08 95       	ret

0000603c <__fp_zero>:
    603c:	e8 94       	clt

0000603e <__fp_szero>:
    603e:	bb 27       	eor	r27, r27
    6040:	66 27       	eor	r22, r22
    6042:	77 27       	eor	r23, r23
    6044:	cb 01       	movw	r24, r22
    6046:	97 f9       	bld	r25, 7
    6048:	08 95       	ret

0000604a <__mulsf3>:
    604a:	0b d0       	rcall	.+22     	; 0x6062 <__mulsf3x>
    604c:	c1 c0       	rjmp	.+386    	; 0x61d0 <__fp_round>
    604e:	b2 d0       	rcall	.+356    	; 0x61b4 <__fp_pscA>
    6050:	28 f0       	brcs	.+10     	; 0x605c <__mulsf3+0x12>
    6052:	b7 d0       	rcall	.+366    	; 0x61c2 <__fp_pscB>
    6054:	18 f0       	brcs	.+6      	; 0x605c <__mulsf3+0x12>
    6056:	95 23       	and	r25, r21
    6058:	09 f0       	breq	.+2      	; 0x605c <__mulsf3+0x12>
    605a:	7a c0       	rjmp	.+244    	; 0x6150 <__fp_inf>
    605c:	a8 c0       	rjmp	.+336    	; 0x61ae <__fp_nan>
    605e:	11 24       	eor	r1, r1
    6060:	ee cf       	rjmp	.-36     	; 0x603e <__fp_szero>

00006062 <__mulsf3x>:
    6062:	ca df       	rcall	.-108    	; 0x5ff8 <__fp_split3>
    6064:	a0 f3       	brcs	.-24     	; 0x604e <__mulsf3+0x4>

00006066 <__mulsf3_pse>:
    6066:	95 9f       	mul	r25, r21
    6068:	d1 f3       	breq	.-12     	; 0x605e <__mulsf3+0x14>
    606a:	95 0f       	add	r25, r21
    606c:	50 e0       	ldi	r21, 0x00	; 0
    606e:	55 1f       	adc	r21, r21
    6070:	62 9f       	mul	r22, r18
    6072:	f0 01       	movw	r30, r0
    6074:	72 9f       	mul	r23, r18
    6076:	bb 27       	eor	r27, r27
    6078:	f0 0d       	add	r31, r0
    607a:	b1 1d       	adc	r27, r1
    607c:	63 9f       	mul	r22, r19
    607e:	aa 27       	eor	r26, r26
    6080:	f0 0d       	add	r31, r0
    6082:	b1 1d       	adc	r27, r1
    6084:	aa 1f       	adc	r26, r26
    6086:	64 9f       	mul	r22, r20
    6088:	66 27       	eor	r22, r22
    608a:	b0 0d       	add	r27, r0
    608c:	a1 1d       	adc	r26, r1
    608e:	66 1f       	adc	r22, r22
    6090:	82 9f       	mul	r24, r18
    6092:	22 27       	eor	r18, r18
    6094:	b0 0d       	add	r27, r0
    6096:	a1 1d       	adc	r26, r1
    6098:	62 1f       	adc	r22, r18
    609a:	73 9f       	mul	r23, r19
    609c:	b0 0d       	add	r27, r0
    609e:	a1 1d       	adc	r26, r1
    60a0:	62 1f       	adc	r22, r18
    60a2:	83 9f       	mul	r24, r19
    60a4:	a0 0d       	add	r26, r0
    60a6:	61 1d       	adc	r22, r1
    60a8:	22 1f       	adc	r18, r18
    60aa:	74 9f       	mul	r23, r20
    60ac:	33 27       	eor	r19, r19
    60ae:	a0 0d       	add	r26, r0
    60b0:	61 1d       	adc	r22, r1
    60b2:	23 1f       	adc	r18, r19
    60b4:	84 9f       	mul	r24, r20
    60b6:	60 0d       	add	r22, r0
    60b8:	21 1d       	adc	r18, r1
    60ba:	82 2f       	mov	r24, r18
    60bc:	76 2f       	mov	r23, r22
    60be:	6a 2f       	mov	r22, r26
    60c0:	11 24       	eor	r1, r1
    60c2:	9f 57       	subi	r25, 0x7F	; 127
    60c4:	50 40       	sbci	r21, 0x00	; 0
    60c6:	8a f0       	brmi	.+34     	; 0x60ea <__mulsf3_pse+0x84>
    60c8:	e1 f0       	breq	.+56     	; 0x6102 <__mulsf3_pse+0x9c>
    60ca:	88 23       	and	r24, r24
    60cc:	4a f0       	brmi	.+18     	; 0x60e0 <__mulsf3_pse+0x7a>
    60ce:	ee 0f       	add	r30, r30
    60d0:	ff 1f       	adc	r31, r31
    60d2:	bb 1f       	adc	r27, r27
    60d4:	66 1f       	adc	r22, r22
    60d6:	77 1f       	adc	r23, r23
    60d8:	88 1f       	adc	r24, r24
    60da:	91 50       	subi	r25, 0x01	; 1
    60dc:	50 40       	sbci	r21, 0x00	; 0
    60de:	a9 f7       	brne	.-22     	; 0x60ca <__mulsf3_pse+0x64>
    60e0:	9e 3f       	cpi	r25, 0xFE	; 254
    60e2:	51 05       	cpc	r21, r1
    60e4:	70 f0       	brcs	.+28     	; 0x6102 <__mulsf3_pse+0x9c>
    60e6:	34 c0       	rjmp	.+104    	; 0x6150 <__fp_inf>
    60e8:	aa cf       	rjmp	.-172    	; 0x603e <__fp_szero>
    60ea:	5f 3f       	cpi	r21, 0xFF	; 255
    60ec:	ec f3       	brlt	.-6      	; 0x60e8 <__mulsf3_pse+0x82>
    60ee:	98 3e       	cpi	r25, 0xE8	; 232
    60f0:	dc f3       	brlt	.-10     	; 0x60e8 <__mulsf3_pse+0x82>
    60f2:	86 95       	lsr	r24
    60f4:	77 95       	ror	r23
    60f6:	67 95       	ror	r22
    60f8:	b7 95       	ror	r27
    60fa:	f7 95       	ror	r31
    60fc:	e7 95       	ror	r30
    60fe:	9f 5f       	subi	r25, 0xFF	; 255
    6100:	c1 f7       	brne	.-16     	; 0x60f2 <__mulsf3_pse+0x8c>
    6102:	fe 2b       	or	r31, r30
    6104:	88 0f       	add	r24, r24
    6106:	91 1d       	adc	r25, r1
    6108:	96 95       	lsr	r25
    610a:	87 95       	ror	r24
    610c:	97 f9       	bld	r25, 7
    610e:	08 95       	ret

00006110 <round>:
    6110:	7b df       	rcall	.-266    	; 0x6008 <__fp_splitA>
    6112:	e0 f0       	brcs	.+56     	; 0x614c <round+0x3c>
    6114:	9e 37       	cpi	r25, 0x7E	; 126
    6116:	d8 f0       	brcs	.+54     	; 0x614e <round+0x3e>
    6118:	96 39       	cpi	r25, 0x96	; 150
    611a:	b8 f4       	brcc	.+46     	; 0x614a <round+0x3a>
    611c:	9e 38       	cpi	r25, 0x8E	; 142
    611e:	48 f4       	brcc	.+18     	; 0x6132 <round+0x22>
    6120:	67 2f       	mov	r22, r23
    6122:	78 2f       	mov	r23, r24
    6124:	88 27       	eor	r24, r24
    6126:	98 5f       	subi	r25, 0xF8	; 248
    6128:	f9 cf       	rjmp	.-14     	; 0x611c <round+0xc>
    612a:	86 95       	lsr	r24
    612c:	77 95       	ror	r23
    612e:	67 95       	ror	r22
    6130:	93 95       	inc	r25
    6132:	95 39       	cpi	r25, 0x95	; 149
    6134:	d0 f3       	brcs	.-12     	; 0x612a <round+0x1a>
    6136:	b6 2f       	mov	r27, r22
    6138:	b1 70       	andi	r27, 0x01	; 1
    613a:	6b 0f       	add	r22, r27
    613c:	71 1d       	adc	r23, r1
    613e:	81 1d       	adc	r24, r1
    6140:	20 f4       	brcc	.+8      	; 0x614a <round+0x3a>
    6142:	87 95       	ror	r24
    6144:	77 95       	ror	r23
    6146:	67 95       	ror	r22
    6148:	93 95       	inc	r25
    614a:	08 c0       	rjmp	.+16     	; 0x615c <__fp_mintl>
    614c:	22 c0       	rjmp	.+68     	; 0x6192 <__fp_mpack>
    614e:	77 cf       	rjmp	.-274    	; 0x603e <__fp_szero>

00006150 <__fp_inf>:
    6150:	97 f9       	bld	r25, 7
    6152:	9f 67       	ori	r25, 0x7F	; 127
    6154:	80 e8       	ldi	r24, 0x80	; 128
    6156:	70 e0       	ldi	r23, 0x00	; 0
    6158:	60 e0       	ldi	r22, 0x00	; 0
    615a:	08 95       	ret

0000615c <__fp_mintl>:
    615c:	88 23       	and	r24, r24
    615e:	71 f4       	brne	.+28     	; 0x617c <__fp_mintl+0x20>
    6160:	77 23       	and	r23, r23
    6162:	21 f0       	breq	.+8      	; 0x616c <__fp_mintl+0x10>
    6164:	98 50       	subi	r25, 0x08	; 8
    6166:	87 2b       	or	r24, r23
    6168:	76 2f       	mov	r23, r22
    616a:	07 c0       	rjmp	.+14     	; 0x617a <__fp_mintl+0x1e>
    616c:	66 23       	and	r22, r22
    616e:	11 f4       	brne	.+4      	; 0x6174 <__fp_mintl+0x18>
    6170:	99 27       	eor	r25, r25
    6172:	0d c0       	rjmp	.+26     	; 0x618e <__fp_mintl+0x32>
    6174:	90 51       	subi	r25, 0x10	; 16
    6176:	86 2b       	or	r24, r22
    6178:	70 e0       	ldi	r23, 0x00	; 0
    617a:	60 e0       	ldi	r22, 0x00	; 0
    617c:	2a f0       	brmi	.+10     	; 0x6188 <__fp_mintl+0x2c>
    617e:	9a 95       	dec	r25
    6180:	66 0f       	add	r22, r22
    6182:	77 1f       	adc	r23, r23
    6184:	88 1f       	adc	r24, r24
    6186:	da f7       	brpl	.-10     	; 0x617e <__fp_mintl+0x22>
    6188:	88 0f       	add	r24, r24
    618a:	96 95       	lsr	r25
    618c:	87 95       	ror	r24
    618e:	97 f9       	bld	r25, 7
    6190:	08 95       	ret

00006192 <__fp_mpack>:
    6192:	9f 3f       	cpi	r25, 0xFF	; 255
    6194:	31 f0       	breq	.+12     	; 0x61a2 <__fp_mpack_finite+0xc>

00006196 <__fp_mpack_finite>:
    6196:	91 50       	subi	r25, 0x01	; 1
    6198:	20 f4       	brcc	.+8      	; 0x61a2 <__fp_mpack_finite+0xc>
    619a:	87 95       	ror	r24
    619c:	77 95       	ror	r23
    619e:	67 95       	ror	r22
    61a0:	b7 95       	ror	r27
    61a2:	88 0f       	add	r24, r24
    61a4:	91 1d       	adc	r25, r1
    61a6:	96 95       	lsr	r25
    61a8:	87 95       	ror	r24
    61aa:	97 f9       	bld	r25, 7
    61ac:	08 95       	ret

000061ae <__fp_nan>:
    61ae:	9f ef       	ldi	r25, 0xFF	; 255
    61b0:	80 ec       	ldi	r24, 0xC0	; 192
    61b2:	08 95       	ret

000061b4 <__fp_pscA>:
    61b4:	00 24       	eor	r0, r0
    61b6:	0a 94       	dec	r0
    61b8:	16 16       	cp	r1, r22
    61ba:	17 06       	cpc	r1, r23
    61bc:	18 06       	cpc	r1, r24
    61be:	09 06       	cpc	r0, r25
    61c0:	08 95       	ret

000061c2 <__fp_pscB>:
    61c2:	00 24       	eor	r0, r0
    61c4:	0a 94       	dec	r0
    61c6:	12 16       	cp	r1, r18
    61c8:	13 06       	cpc	r1, r19
    61ca:	14 06       	cpc	r1, r20
    61cc:	05 06       	cpc	r0, r21
    61ce:	08 95       	ret

000061d0 <__fp_round>:
    61d0:	09 2e       	mov	r0, r25
    61d2:	03 94       	inc	r0
    61d4:	00 0c       	add	r0, r0
    61d6:	11 f4       	brne	.+4      	; 0x61dc <__fp_round+0xc>
    61d8:	88 23       	and	r24, r24
    61da:	52 f0       	brmi	.+20     	; 0x61f0 <__fp_round+0x20>
    61dc:	bb 0f       	add	r27, r27
    61de:	40 f4       	brcc	.+16     	; 0x61f0 <__fp_round+0x20>
    61e0:	bf 2b       	or	r27, r31
    61e2:	11 f4       	brne	.+4      	; 0x61e8 <__fp_round+0x18>
    61e4:	60 ff       	sbrs	r22, 0
    61e6:	04 c0       	rjmp	.+8      	; 0x61f0 <__fp_round+0x20>
    61e8:	6f 5f       	subi	r22, 0xFF	; 255
    61ea:	7f 4f       	sbci	r23, 0xFF	; 255
    61ec:	8f 4f       	sbci	r24, 0xFF	; 255
    61ee:	9f 4f       	sbci	r25, 0xFF	; 255
    61f0:	08 95       	ret

000061f2 <sprintf>:
    61f2:	ae e0       	ldi	r26, 0x0E	; 14
    61f4:	b0 e0       	ldi	r27, 0x00	; 0
    61f6:	ef ef       	ldi	r30, 0xFF	; 255
    61f8:	f0 e3       	ldi	r31, 0x30	; 48
    61fa:	0c 94 d3 33 	jmp	0x67a6	; 0x67a6 <__prologue_saves__+0x1c>
    61fe:	0d 89       	ldd	r16, Y+21	; 0x15
    6200:	1e 89       	ldd	r17, Y+22	; 0x16
    6202:	86 e0       	ldi	r24, 0x06	; 6
    6204:	8c 83       	std	Y+4, r24	; 0x04
    6206:	1a 83       	std	Y+2, r17	; 0x02
    6208:	09 83       	std	Y+1, r16	; 0x01
    620a:	8f ef       	ldi	r24, 0xFF	; 255
    620c:	9f e7       	ldi	r25, 0x7F	; 127
    620e:	9e 83       	std	Y+6, r25	; 0x06
    6210:	8d 83       	std	Y+5, r24	; 0x05
    6212:	ae 01       	movw	r20, r28
    6214:	47 5e       	subi	r20, 0xE7	; 231
    6216:	5f 4f       	sbci	r21, 0xFF	; 255
    6218:	6f 89       	ldd	r22, Y+23	; 0x17
    621a:	78 8d       	ldd	r23, Y+24	; 0x18
    621c:	ce 01       	movw	r24, r28
    621e:	01 96       	adiw	r24, 0x01	; 1
    6220:	0e 94 3d 31 	call	0x627a	; 0x627a <vfprintf>
    6224:	ef 81       	ldd	r30, Y+7	; 0x07
    6226:	f8 85       	ldd	r31, Y+8	; 0x08
    6228:	e0 0f       	add	r30, r16
    622a:	f1 1f       	adc	r31, r17
    622c:	10 82       	st	Z, r1
    622e:	2e 96       	adiw	r28, 0x0e	; 14
    6230:	e4 e0       	ldi	r30, 0x04	; 4
    6232:	0c 94 ef 33 	jmp	0x67de	; 0x67de <__epilogue_restores__+0x1c>

00006236 <sprintf_P>:
    6236:	ae e0       	ldi	r26, 0x0E	; 14
    6238:	b0 e0       	ldi	r27, 0x00	; 0
    623a:	e1 e2       	ldi	r30, 0x21	; 33
    623c:	f1 e3       	ldi	r31, 0x31	; 49
    623e:	0c 94 d3 33 	jmp	0x67a6	; 0x67a6 <__prologue_saves__+0x1c>
    6242:	0d 89       	ldd	r16, Y+21	; 0x15
    6244:	1e 89       	ldd	r17, Y+22	; 0x16
    6246:	8e e0       	ldi	r24, 0x0E	; 14
    6248:	8c 83       	std	Y+4, r24	; 0x04
    624a:	1a 83       	std	Y+2, r17	; 0x02
    624c:	09 83       	std	Y+1, r16	; 0x01
    624e:	8f ef       	ldi	r24, 0xFF	; 255
    6250:	9f e7       	ldi	r25, 0x7F	; 127
    6252:	9e 83       	std	Y+6, r25	; 0x06
    6254:	8d 83       	std	Y+5, r24	; 0x05
    6256:	ae 01       	movw	r20, r28
    6258:	47 5e       	subi	r20, 0xE7	; 231
    625a:	5f 4f       	sbci	r21, 0xFF	; 255
    625c:	6f 89       	ldd	r22, Y+23	; 0x17
    625e:	78 8d       	ldd	r23, Y+24	; 0x18
    6260:	ce 01       	movw	r24, r28
    6262:	01 96       	adiw	r24, 0x01	; 1
    6264:	0e 94 3d 31 	call	0x627a	; 0x627a <vfprintf>
    6268:	ef 81       	ldd	r30, Y+7	; 0x07
    626a:	f8 85       	ldd	r31, Y+8	; 0x08
    626c:	e0 0f       	add	r30, r16
    626e:	f1 1f       	adc	r31, r17
    6270:	10 82       	st	Z, r1
    6272:	2e 96       	adiw	r28, 0x0e	; 14
    6274:	e4 e0       	ldi	r30, 0x04	; 4
    6276:	0c 94 ef 33 	jmp	0x67de	; 0x67de <__epilogue_restores__+0x1c>

0000627a <vfprintf>:
    627a:	ac e0       	ldi	r26, 0x0C	; 12
    627c:	b0 e0       	ldi	r27, 0x00	; 0
    627e:	e3 e4       	ldi	r30, 0x43	; 67
    6280:	f1 e3       	ldi	r31, 0x31	; 49
    6282:	0c 94 c5 33 	jmp	0x678a	; 0x678a <__prologue_saves__>
    6286:	7c 01       	movw	r14, r24
    6288:	6b 01       	movw	r12, r22
    628a:	8a 01       	movw	r16, r20
    628c:	fc 01       	movw	r30, r24
    628e:	17 82       	std	Z+7, r1	; 0x07
    6290:	16 82       	std	Z+6, r1	; 0x06
    6292:	83 81       	ldd	r24, Z+3	; 0x03
    6294:	81 ff       	sbrs	r24, 1
    6296:	bd c1       	rjmp	.+890    	; 0x6612 <vfprintf+0x398>
    6298:	ce 01       	movw	r24, r28
    629a:	01 96       	adiw	r24, 0x01	; 1
    629c:	4c 01       	movw	r8, r24
    629e:	f7 01       	movw	r30, r14
    62a0:	93 81       	ldd	r25, Z+3	; 0x03
    62a2:	f6 01       	movw	r30, r12
    62a4:	93 fd       	sbrc	r25, 3
    62a6:	85 91       	lpm	r24, Z+
    62a8:	93 ff       	sbrs	r25, 3
    62aa:	81 91       	ld	r24, Z+
    62ac:	6f 01       	movw	r12, r30
    62ae:	88 23       	and	r24, r24
    62b0:	09 f4       	brne	.+2      	; 0x62b4 <vfprintf+0x3a>
    62b2:	ab c1       	rjmp	.+854    	; 0x660a <vfprintf+0x390>
    62b4:	85 32       	cpi	r24, 0x25	; 37
    62b6:	39 f4       	brne	.+14     	; 0x62c6 <vfprintf+0x4c>
    62b8:	93 fd       	sbrc	r25, 3
    62ba:	85 91       	lpm	r24, Z+
    62bc:	93 ff       	sbrs	r25, 3
    62be:	81 91       	ld	r24, Z+
    62c0:	6f 01       	movw	r12, r30
    62c2:	85 32       	cpi	r24, 0x25	; 37
    62c4:	29 f4       	brne	.+10     	; 0x62d0 <vfprintf+0x56>
    62c6:	b7 01       	movw	r22, r14
    62c8:	90 e0       	ldi	r25, 0x00	; 0
    62ca:	0e 94 35 33 	call	0x666a	; 0x666a <fputc>
    62ce:	e7 cf       	rjmp	.-50     	; 0x629e <vfprintf+0x24>
    62d0:	51 2c       	mov	r5, r1
    62d2:	31 2c       	mov	r3, r1
    62d4:	20 e0       	ldi	r18, 0x00	; 0
    62d6:	20 32       	cpi	r18, 0x20	; 32
    62d8:	a0 f4       	brcc	.+40     	; 0x6302 <vfprintf+0x88>
    62da:	8b 32       	cpi	r24, 0x2B	; 43
    62dc:	69 f0       	breq	.+26     	; 0x62f8 <vfprintf+0x7e>
    62de:	30 f4       	brcc	.+12     	; 0x62ec <vfprintf+0x72>
    62e0:	80 32       	cpi	r24, 0x20	; 32
    62e2:	59 f0       	breq	.+22     	; 0x62fa <vfprintf+0x80>
    62e4:	83 32       	cpi	r24, 0x23	; 35
    62e6:	69 f4       	brne	.+26     	; 0x6302 <vfprintf+0x88>
    62e8:	20 61       	ori	r18, 0x10	; 16
    62ea:	2c c0       	rjmp	.+88     	; 0x6344 <vfprintf+0xca>
    62ec:	8d 32       	cpi	r24, 0x2D	; 45
    62ee:	39 f0       	breq	.+14     	; 0x62fe <vfprintf+0x84>
    62f0:	80 33       	cpi	r24, 0x30	; 48
    62f2:	39 f4       	brne	.+14     	; 0x6302 <vfprintf+0x88>
    62f4:	21 60       	ori	r18, 0x01	; 1
    62f6:	26 c0       	rjmp	.+76     	; 0x6344 <vfprintf+0xca>
    62f8:	22 60       	ori	r18, 0x02	; 2
    62fa:	24 60       	ori	r18, 0x04	; 4
    62fc:	23 c0       	rjmp	.+70     	; 0x6344 <vfprintf+0xca>
    62fe:	28 60       	ori	r18, 0x08	; 8
    6300:	21 c0       	rjmp	.+66     	; 0x6344 <vfprintf+0xca>
    6302:	27 fd       	sbrc	r18, 7
    6304:	27 c0       	rjmp	.+78     	; 0x6354 <vfprintf+0xda>
    6306:	30 ed       	ldi	r19, 0xD0	; 208
    6308:	38 0f       	add	r19, r24
    630a:	3a 30       	cpi	r19, 0x0A	; 10
    630c:	78 f4       	brcc	.+30     	; 0x632c <vfprintf+0xb2>
    630e:	26 ff       	sbrs	r18, 6
    6310:	06 c0       	rjmp	.+12     	; 0x631e <vfprintf+0xa4>
    6312:	fa e0       	ldi	r31, 0x0A	; 10
    6314:	5f 9e       	mul	r5, r31
    6316:	30 0d       	add	r19, r0
    6318:	11 24       	eor	r1, r1
    631a:	53 2e       	mov	r5, r19
    631c:	13 c0       	rjmp	.+38     	; 0x6344 <vfprintf+0xca>
    631e:	8a e0       	ldi	r24, 0x0A	; 10
    6320:	38 9e       	mul	r3, r24
    6322:	30 0d       	add	r19, r0
    6324:	11 24       	eor	r1, r1
    6326:	33 2e       	mov	r3, r19
    6328:	20 62       	ori	r18, 0x20	; 32
    632a:	0c c0       	rjmp	.+24     	; 0x6344 <vfprintf+0xca>
    632c:	8e 32       	cpi	r24, 0x2E	; 46
    632e:	21 f4       	brne	.+8      	; 0x6338 <vfprintf+0xbe>
    6330:	26 fd       	sbrc	r18, 6
    6332:	6b c1       	rjmp	.+726    	; 0x660a <vfprintf+0x390>
    6334:	20 64       	ori	r18, 0x40	; 64
    6336:	06 c0       	rjmp	.+12     	; 0x6344 <vfprintf+0xca>
    6338:	8c 36       	cpi	r24, 0x6C	; 108
    633a:	11 f4       	brne	.+4      	; 0x6340 <vfprintf+0xc6>
    633c:	20 68       	ori	r18, 0x80	; 128
    633e:	02 c0       	rjmp	.+4      	; 0x6344 <vfprintf+0xca>
    6340:	88 36       	cpi	r24, 0x68	; 104
    6342:	41 f4       	brne	.+16     	; 0x6354 <vfprintf+0xda>
    6344:	f6 01       	movw	r30, r12
    6346:	93 fd       	sbrc	r25, 3
    6348:	85 91       	lpm	r24, Z+
    634a:	93 ff       	sbrs	r25, 3
    634c:	81 91       	ld	r24, Z+
    634e:	6f 01       	movw	r12, r30
    6350:	81 11       	cpse	r24, r1
    6352:	c1 cf       	rjmp	.-126    	; 0x62d6 <vfprintf+0x5c>
    6354:	98 2f       	mov	r25, r24
    6356:	9f 7d       	andi	r25, 0xDF	; 223
    6358:	95 54       	subi	r25, 0x45	; 69
    635a:	93 30       	cpi	r25, 0x03	; 3
    635c:	28 f4       	brcc	.+10     	; 0x6368 <vfprintf+0xee>
    635e:	0c 5f       	subi	r16, 0xFC	; 252
    6360:	1f 4f       	sbci	r17, 0xFF	; 255
    6362:	ff e3       	ldi	r31, 0x3F	; 63
    6364:	f9 83       	std	Y+1, r31	; 0x01
    6366:	0d c0       	rjmp	.+26     	; 0x6382 <vfprintf+0x108>
    6368:	83 36       	cpi	r24, 0x63	; 99
    636a:	31 f0       	breq	.+12     	; 0x6378 <vfprintf+0xfe>
    636c:	83 37       	cpi	r24, 0x73	; 115
    636e:	71 f0       	breq	.+28     	; 0x638c <vfprintf+0x112>
    6370:	83 35       	cpi	r24, 0x53	; 83
    6372:	09 f0       	breq	.+2      	; 0x6376 <vfprintf+0xfc>
    6374:	5b c0       	rjmp	.+182    	; 0x642c <vfprintf+0x1b2>
    6376:	22 c0       	rjmp	.+68     	; 0x63bc <vfprintf+0x142>
    6378:	f8 01       	movw	r30, r16
    637a:	80 81       	ld	r24, Z
    637c:	89 83       	std	Y+1, r24	; 0x01
    637e:	0e 5f       	subi	r16, 0xFE	; 254
    6380:	1f 4f       	sbci	r17, 0xFF	; 255
    6382:	44 24       	eor	r4, r4
    6384:	43 94       	inc	r4
    6386:	51 2c       	mov	r5, r1
    6388:	54 01       	movw	r10, r8
    638a:	15 c0       	rjmp	.+42     	; 0x63b6 <vfprintf+0x13c>
    638c:	38 01       	movw	r6, r16
    638e:	f2 e0       	ldi	r31, 0x02	; 2
    6390:	6f 0e       	add	r6, r31
    6392:	71 1c       	adc	r7, r1
    6394:	f8 01       	movw	r30, r16
    6396:	a0 80       	ld	r10, Z
    6398:	b1 80       	ldd	r11, Z+1	; 0x01
    639a:	26 ff       	sbrs	r18, 6
    639c:	03 c0       	rjmp	.+6      	; 0x63a4 <vfprintf+0x12a>
    639e:	65 2d       	mov	r22, r5
    63a0:	70 e0       	ldi	r23, 0x00	; 0
    63a2:	02 c0       	rjmp	.+4      	; 0x63a8 <vfprintf+0x12e>
    63a4:	6f ef       	ldi	r22, 0xFF	; 255
    63a6:	7f ef       	ldi	r23, 0xFF	; 255
    63a8:	c5 01       	movw	r24, r10
    63aa:	2c 87       	std	Y+12, r18	; 0x0c
    63ac:	0e 94 2a 33 	call	0x6654	; 0x6654 <strnlen>
    63b0:	2c 01       	movw	r4, r24
    63b2:	83 01       	movw	r16, r6
    63b4:	2c 85       	ldd	r18, Y+12	; 0x0c
    63b6:	2f 77       	andi	r18, 0x7F	; 127
    63b8:	22 2e       	mov	r2, r18
    63ba:	17 c0       	rjmp	.+46     	; 0x63ea <vfprintf+0x170>
    63bc:	38 01       	movw	r6, r16
    63be:	f2 e0       	ldi	r31, 0x02	; 2
    63c0:	6f 0e       	add	r6, r31
    63c2:	71 1c       	adc	r7, r1
    63c4:	f8 01       	movw	r30, r16
    63c6:	a0 80       	ld	r10, Z
    63c8:	b1 80       	ldd	r11, Z+1	; 0x01
    63ca:	26 ff       	sbrs	r18, 6
    63cc:	03 c0       	rjmp	.+6      	; 0x63d4 <vfprintf+0x15a>
    63ce:	65 2d       	mov	r22, r5
    63d0:	70 e0       	ldi	r23, 0x00	; 0
    63d2:	02 c0       	rjmp	.+4      	; 0x63d8 <vfprintf+0x15e>
    63d4:	6f ef       	ldi	r22, 0xFF	; 255
    63d6:	7f ef       	ldi	r23, 0xFF	; 255
    63d8:	c5 01       	movw	r24, r10
    63da:	2c 87       	std	Y+12, r18	; 0x0c
    63dc:	0e 94 1f 33 	call	0x663e	; 0x663e <strnlen_P>
    63e0:	2c 01       	movw	r4, r24
    63e2:	2c 85       	ldd	r18, Y+12	; 0x0c
    63e4:	20 68       	ori	r18, 0x80	; 128
    63e6:	22 2e       	mov	r2, r18
    63e8:	83 01       	movw	r16, r6
    63ea:	23 fc       	sbrc	r2, 3
    63ec:	1b c0       	rjmp	.+54     	; 0x6424 <vfprintf+0x1aa>
    63ee:	83 2d       	mov	r24, r3
    63f0:	90 e0       	ldi	r25, 0x00	; 0
    63f2:	48 16       	cp	r4, r24
    63f4:	59 06       	cpc	r5, r25
    63f6:	b0 f4       	brcc	.+44     	; 0x6424 <vfprintf+0x1aa>
    63f8:	b7 01       	movw	r22, r14
    63fa:	80 e2       	ldi	r24, 0x20	; 32
    63fc:	90 e0       	ldi	r25, 0x00	; 0
    63fe:	0e 94 35 33 	call	0x666a	; 0x666a <fputc>
    6402:	3a 94       	dec	r3
    6404:	f4 cf       	rjmp	.-24     	; 0x63ee <vfprintf+0x174>
    6406:	f5 01       	movw	r30, r10
    6408:	27 fc       	sbrc	r2, 7
    640a:	85 91       	lpm	r24, Z+
    640c:	27 fe       	sbrs	r2, 7
    640e:	81 91       	ld	r24, Z+
    6410:	5f 01       	movw	r10, r30
    6412:	b7 01       	movw	r22, r14
    6414:	90 e0       	ldi	r25, 0x00	; 0
    6416:	0e 94 35 33 	call	0x666a	; 0x666a <fputc>
    641a:	31 10       	cpse	r3, r1
    641c:	3a 94       	dec	r3
    641e:	f1 e0       	ldi	r31, 0x01	; 1
    6420:	4f 1a       	sub	r4, r31
    6422:	51 08       	sbc	r5, r1
    6424:	41 14       	cp	r4, r1
    6426:	51 04       	cpc	r5, r1
    6428:	71 f7       	brne	.-36     	; 0x6406 <vfprintf+0x18c>
    642a:	e5 c0       	rjmp	.+458    	; 0x65f6 <vfprintf+0x37c>
    642c:	84 36       	cpi	r24, 0x64	; 100
    642e:	11 f0       	breq	.+4      	; 0x6434 <vfprintf+0x1ba>
    6430:	89 36       	cpi	r24, 0x69	; 105
    6432:	39 f5       	brne	.+78     	; 0x6482 <vfprintf+0x208>
    6434:	f8 01       	movw	r30, r16
    6436:	27 ff       	sbrs	r18, 7
    6438:	07 c0       	rjmp	.+14     	; 0x6448 <vfprintf+0x1ce>
    643a:	60 81       	ld	r22, Z
    643c:	71 81       	ldd	r23, Z+1	; 0x01
    643e:	82 81       	ldd	r24, Z+2	; 0x02
    6440:	93 81       	ldd	r25, Z+3	; 0x03
    6442:	0c 5f       	subi	r16, 0xFC	; 252
    6444:	1f 4f       	sbci	r17, 0xFF	; 255
    6446:	08 c0       	rjmp	.+16     	; 0x6458 <vfprintf+0x1de>
    6448:	60 81       	ld	r22, Z
    644a:	71 81       	ldd	r23, Z+1	; 0x01
    644c:	88 27       	eor	r24, r24
    644e:	77 fd       	sbrc	r23, 7
    6450:	80 95       	com	r24
    6452:	98 2f       	mov	r25, r24
    6454:	0e 5f       	subi	r16, 0xFE	; 254
    6456:	1f 4f       	sbci	r17, 0xFF	; 255
    6458:	2f 76       	andi	r18, 0x6F	; 111
    645a:	b2 2e       	mov	r11, r18
    645c:	97 ff       	sbrs	r25, 7
    645e:	09 c0       	rjmp	.+18     	; 0x6472 <vfprintf+0x1f8>
    6460:	90 95       	com	r25
    6462:	80 95       	com	r24
    6464:	70 95       	com	r23
    6466:	61 95       	neg	r22
    6468:	7f 4f       	sbci	r23, 0xFF	; 255
    646a:	8f 4f       	sbci	r24, 0xFF	; 255
    646c:	9f 4f       	sbci	r25, 0xFF	; 255
    646e:	20 68       	ori	r18, 0x80	; 128
    6470:	b2 2e       	mov	r11, r18
    6472:	2a e0       	ldi	r18, 0x0A	; 10
    6474:	30 e0       	ldi	r19, 0x00	; 0
    6476:	a4 01       	movw	r20, r8
    6478:	0e 94 67 33 	call	0x66ce	; 0x66ce <__ultoa_invert>
    647c:	a8 2e       	mov	r10, r24
    647e:	a8 18       	sub	r10, r8
    6480:	44 c0       	rjmp	.+136    	; 0x650a <vfprintf+0x290>
    6482:	85 37       	cpi	r24, 0x75	; 117
    6484:	29 f4       	brne	.+10     	; 0x6490 <vfprintf+0x216>
    6486:	2f 7e       	andi	r18, 0xEF	; 239
    6488:	b2 2e       	mov	r11, r18
    648a:	2a e0       	ldi	r18, 0x0A	; 10
    648c:	30 e0       	ldi	r19, 0x00	; 0
    648e:	25 c0       	rjmp	.+74     	; 0x64da <vfprintf+0x260>
    6490:	f2 2f       	mov	r31, r18
    6492:	f9 7f       	andi	r31, 0xF9	; 249
    6494:	bf 2e       	mov	r11, r31
    6496:	8f 36       	cpi	r24, 0x6F	; 111
    6498:	c1 f0       	breq	.+48     	; 0x64ca <vfprintf+0x250>
    649a:	18 f4       	brcc	.+6      	; 0x64a2 <vfprintf+0x228>
    649c:	88 35       	cpi	r24, 0x58	; 88
    649e:	79 f0       	breq	.+30     	; 0x64be <vfprintf+0x244>
    64a0:	b4 c0       	rjmp	.+360    	; 0x660a <vfprintf+0x390>
    64a2:	80 37       	cpi	r24, 0x70	; 112
    64a4:	19 f0       	breq	.+6      	; 0x64ac <vfprintf+0x232>
    64a6:	88 37       	cpi	r24, 0x78	; 120
    64a8:	21 f0       	breq	.+8      	; 0x64b2 <vfprintf+0x238>
    64aa:	af c0       	rjmp	.+350    	; 0x660a <vfprintf+0x390>
    64ac:	2f 2f       	mov	r18, r31
    64ae:	20 61       	ori	r18, 0x10	; 16
    64b0:	b2 2e       	mov	r11, r18
    64b2:	b4 fe       	sbrs	r11, 4
    64b4:	0d c0       	rjmp	.+26     	; 0x64d0 <vfprintf+0x256>
    64b6:	8b 2d       	mov	r24, r11
    64b8:	84 60       	ori	r24, 0x04	; 4
    64ba:	b8 2e       	mov	r11, r24
    64bc:	09 c0       	rjmp	.+18     	; 0x64d0 <vfprintf+0x256>
    64be:	24 ff       	sbrs	r18, 4
    64c0:	0a c0       	rjmp	.+20     	; 0x64d6 <vfprintf+0x25c>
    64c2:	9f 2f       	mov	r25, r31
    64c4:	96 60       	ori	r25, 0x06	; 6
    64c6:	b9 2e       	mov	r11, r25
    64c8:	06 c0       	rjmp	.+12     	; 0x64d6 <vfprintf+0x25c>
    64ca:	28 e0       	ldi	r18, 0x08	; 8
    64cc:	30 e0       	ldi	r19, 0x00	; 0
    64ce:	05 c0       	rjmp	.+10     	; 0x64da <vfprintf+0x260>
    64d0:	20 e1       	ldi	r18, 0x10	; 16
    64d2:	30 e0       	ldi	r19, 0x00	; 0
    64d4:	02 c0       	rjmp	.+4      	; 0x64da <vfprintf+0x260>
    64d6:	20 e1       	ldi	r18, 0x10	; 16
    64d8:	32 e0       	ldi	r19, 0x02	; 2
    64da:	f8 01       	movw	r30, r16
    64dc:	b7 fe       	sbrs	r11, 7
    64de:	07 c0       	rjmp	.+14     	; 0x64ee <vfprintf+0x274>
    64e0:	60 81       	ld	r22, Z
    64e2:	71 81       	ldd	r23, Z+1	; 0x01
    64e4:	82 81       	ldd	r24, Z+2	; 0x02
    64e6:	93 81       	ldd	r25, Z+3	; 0x03
    64e8:	0c 5f       	subi	r16, 0xFC	; 252
    64ea:	1f 4f       	sbci	r17, 0xFF	; 255
    64ec:	06 c0       	rjmp	.+12     	; 0x64fa <vfprintf+0x280>
    64ee:	60 81       	ld	r22, Z
    64f0:	71 81       	ldd	r23, Z+1	; 0x01
    64f2:	80 e0       	ldi	r24, 0x00	; 0
    64f4:	90 e0       	ldi	r25, 0x00	; 0
    64f6:	0e 5f       	subi	r16, 0xFE	; 254
    64f8:	1f 4f       	sbci	r17, 0xFF	; 255
    64fa:	a4 01       	movw	r20, r8
    64fc:	0e 94 67 33 	call	0x66ce	; 0x66ce <__ultoa_invert>
    6500:	a8 2e       	mov	r10, r24
    6502:	a8 18       	sub	r10, r8
    6504:	fb 2d       	mov	r31, r11
    6506:	ff 77       	andi	r31, 0x7F	; 127
    6508:	bf 2e       	mov	r11, r31
    650a:	b6 fe       	sbrs	r11, 6
    650c:	0b c0       	rjmp	.+22     	; 0x6524 <vfprintf+0x2aa>
    650e:	2b 2d       	mov	r18, r11
    6510:	2e 7f       	andi	r18, 0xFE	; 254
    6512:	a5 14       	cp	r10, r5
    6514:	50 f4       	brcc	.+20     	; 0x652a <vfprintf+0x2b0>
    6516:	b4 fe       	sbrs	r11, 4
    6518:	0a c0       	rjmp	.+20     	; 0x652e <vfprintf+0x2b4>
    651a:	b2 fc       	sbrc	r11, 2
    651c:	08 c0       	rjmp	.+16     	; 0x652e <vfprintf+0x2b4>
    651e:	2b 2d       	mov	r18, r11
    6520:	2e 7e       	andi	r18, 0xEE	; 238
    6522:	05 c0       	rjmp	.+10     	; 0x652e <vfprintf+0x2b4>
    6524:	7a 2c       	mov	r7, r10
    6526:	2b 2d       	mov	r18, r11
    6528:	03 c0       	rjmp	.+6      	; 0x6530 <vfprintf+0x2b6>
    652a:	7a 2c       	mov	r7, r10
    652c:	01 c0       	rjmp	.+2      	; 0x6530 <vfprintf+0x2b6>
    652e:	75 2c       	mov	r7, r5
    6530:	24 ff       	sbrs	r18, 4
    6532:	0d c0       	rjmp	.+26     	; 0x654e <vfprintf+0x2d4>
    6534:	fe 01       	movw	r30, r28
    6536:	ea 0d       	add	r30, r10
    6538:	f1 1d       	adc	r31, r1
    653a:	80 81       	ld	r24, Z
    653c:	80 33       	cpi	r24, 0x30	; 48
    653e:	11 f4       	brne	.+4      	; 0x6544 <vfprintf+0x2ca>
    6540:	29 7e       	andi	r18, 0xE9	; 233
    6542:	09 c0       	rjmp	.+18     	; 0x6556 <vfprintf+0x2dc>
    6544:	22 ff       	sbrs	r18, 2
    6546:	06 c0       	rjmp	.+12     	; 0x6554 <vfprintf+0x2da>
    6548:	73 94       	inc	r7
    654a:	73 94       	inc	r7
    654c:	04 c0       	rjmp	.+8      	; 0x6556 <vfprintf+0x2dc>
    654e:	82 2f       	mov	r24, r18
    6550:	86 78       	andi	r24, 0x86	; 134
    6552:	09 f0       	breq	.+2      	; 0x6556 <vfprintf+0x2dc>
    6554:	73 94       	inc	r7
    6556:	23 fd       	sbrc	r18, 3
    6558:	13 c0       	rjmp	.+38     	; 0x6580 <vfprintf+0x306>
    655a:	20 ff       	sbrs	r18, 0
    655c:	06 c0       	rjmp	.+12     	; 0x656a <vfprintf+0x2f0>
    655e:	5a 2c       	mov	r5, r10
    6560:	73 14       	cp	r7, r3
    6562:	18 f4       	brcc	.+6      	; 0x656a <vfprintf+0x2f0>
    6564:	53 0c       	add	r5, r3
    6566:	57 18       	sub	r5, r7
    6568:	73 2c       	mov	r7, r3
    656a:	73 14       	cp	r7, r3
    656c:	68 f4       	brcc	.+26     	; 0x6588 <vfprintf+0x30e>
    656e:	b7 01       	movw	r22, r14
    6570:	80 e2       	ldi	r24, 0x20	; 32
    6572:	90 e0       	ldi	r25, 0x00	; 0
    6574:	2c 87       	std	Y+12, r18	; 0x0c
    6576:	0e 94 35 33 	call	0x666a	; 0x666a <fputc>
    657a:	73 94       	inc	r7
    657c:	2c 85       	ldd	r18, Y+12	; 0x0c
    657e:	f5 cf       	rjmp	.-22     	; 0x656a <vfprintf+0x2f0>
    6580:	73 14       	cp	r7, r3
    6582:	10 f4       	brcc	.+4      	; 0x6588 <vfprintf+0x30e>
    6584:	37 18       	sub	r3, r7
    6586:	01 c0       	rjmp	.+2      	; 0x658a <vfprintf+0x310>
    6588:	31 2c       	mov	r3, r1
    658a:	24 ff       	sbrs	r18, 4
    658c:	12 c0       	rjmp	.+36     	; 0x65b2 <vfprintf+0x338>
    658e:	b7 01       	movw	r22, r14
    6590:	80 e3       	ldi	r24, 0x30	; 48
    6592:	90 e0       	ldi	r25, 0x00	; 0
    6594:	2c 87       	std	Y+12, r18	; 0x0c
    6596:	0e 94 35 33 	call	0x666a	; 0x666a <fputc>
    659a:	2c 85       	ldd	r18, Y+12	; 0x0c
    659c:	22 ff       	sbrs	r18, 2
    659e:	17 c0       	rjmp	.+46     	; 0x65ce <vfprintf+0x354>
    65a0:	21 ff       	sbrs	r18, 1
    65a2:	03 c0       	rjmp	.+6      	; 0x65aa <vfprintf+0x330>
    65a4:	88 e5       	ldi	r24, 0x58	; 88
    65a6:	90 e0       	ldi	r25, 0x00	; 0
    65a8:	02 c0       	rjmp	.+4      	; 0x65ae <vfprintf+0x334>
    65aa:	88 e7       	ldi	r24, 0x78	; 120
    65ac:	90 e0       	ldi	r25, 0x00	; 0
    65ae:	b7 01       	movw	r22, r14
    65b0:	0c c0       	rjmp	.+24     	; 0x65ca <vfprintf+0x350>
    65b2:	82 2f       	mov	r24, r18
    65b4:	86 78       	andi	r24, 0x86	; 134
    65b6:	59 f0       	breq	.+22     	; 0x65ce <vfprintf+0x354>
    65b8:	21 fd       	sbrc	r18, 1
    65ba:	02 c0       	rjmp	.+4      	; 0x65c0 <vfprintf+0x346>
    65bc:	80 e2       	ldi	r24, 0x20	; 32
    65be:	01 c0       	rjmp	.+2      	; 0x65c2 <vfprintf+0x348>
    65c0:	8b e2       	ldi	r24, 0x2B	; 43
    65c2:	27 fd       	sbrc	r18, 7
    65c4:	8d e2       	ldi	r24, 0x2D	; 45
    65c6:	b7 01       	movw	r22, r14
    65c8:	90 e0       	ldi	r25, 0x00	; 0
    65ca:	0e 94 35 33 	call	0x666a	; 0x666a <fputc>
    65ce:	a5 14       	cp	r10, r5
    65d0:	38 f4       	brcc	.+14     	; 0x65e0 <vfprintf+0x366>
    65d2:	b7 01       	movw	r22, r14
    65d4:	80 e3       	ldi	r24, 0x30	; 48
    65d6:	90 e0       	ldi	r25, 0x00	; 0
    65d8:	0e 94 35 33 	call	0x666a	; 0x666a <fputc>
    65dc:	5a 94       	dec	r5
    65de:	f7 cf       	rjmp	.-18     	; 0x65ce <vfprintf+0x354>
    65e0:	aa 94       	dec	r10
    65e2:	f4 01       	movw	r30, r8
    65e4:	ea 0d       	add	r30, r10
    65e6:	f1 1d       	adc	r31, r1
    65e8:	80 81       	ld	r24, Z
    65ea:	b7 01       	movw	r22, r14
    65ec:	90 e0       	ldi	r25, 0x00	; 0
    65ee:	0e 94 35 33 	call	0x666a	; 0x666a <fputc>
    65f2:	a1 10       	cpse	r10, r1
    65f4:	f5 cf       	rjmp	.-22     	; 0x65e0 <vfprintf+0x366>
    65f6:	33 20       	and	r3, r3
    65f8:	09 f4       	brne	.+2      	; 0x65fc <vfprintf+0x382>
    65fa:	51 ce       	rjmp	.-862    	; 0x629e <vfprintf+0x24>
    65fc:	b7 01       	movw	r22, r14
    65fe:	80 e2       	ldi	r24, 0x20	; 32
    6600:	90 e0       	ldi	r25, 0x00	; 0
    6602:	0e 94 35 33 	call	0x666a	; 0x666a <fputc>
    6606:	3a 94       	dec	r3
    6608:	f6 cf       	rjmp	.-20     	; 0x65f6 <vfprintf+0x37c>
    660a:	f7 01       	movw	r30, r14
    660c:	86 81       	ldd	r24, Z+6	; 0x06
    660e:	97 81       	ldd	r25, Z+7	; 0x07
    6610:	02 c0       	rjmp	.+4      	; 0x6616 <vfprintf+0x39c>
    6612:	8f ef       	ldi	r24, 0xFF	; 255
    6614:	9f ef       	ldi	r25, 0xFF	; 255
    6616:	2c 96       	adiw	r28, 0x0c	; 12
    6618:	e2 e1       	ldi	r30, 0x12	; 18
    661a:	0c 94 e1 33 	jmp	0x67c2	; 0x67c2 <__epilogue_restores__>

0000661e <__eerd_block_m328>:
    661e:	dc 01       	movw	r26, r24
    6620:	cb 01       	movw	r24, r22

00006622 <__eerd_blraw_m328>:
    6622:	fc 01       	movw	r30, r24
    6624:	f9 99       	sbic	0x1f, 1	; 31
    6626:	fe cf       	rjmp	.-4      	; 0x6624 <__eerd_blraw_m328+0x2>
    6628:	06 c0       	rjmp	.+12     	; 0x6636 <__eerd_blraw_m328+0x14>
    662a:	f2 bd       	out	0x22, r31	; 34
    662c:	e1 bd       	out	0x21, r30	; 33
    662e:	f8 9a       	sbi	0x1f, 0	; 31
    6630:	31 96       	adiw	r30, 0x01	; 1
    6632:	00 b4       	in	r0, 0x20	; 32
    6634:	0d 92       	st	X+, r0
    6636:	41 50       	subi	r20, 0x01	; 1
    6638:	50 40       	sbci	r21, 0x00	; 0
    663a:	b8 f7       	brcc	.-18     	; 0x662a <__eerd_blraw_m328+0x8>
    663c:	08 95       	ret

0000663e <strnlen_P>:
    663e:	fc 01       	movw	r30, r24
    6640:	05 90       	lpm	r0, Z+
    6642:	61 50       	subi	r22, 0x01	; 1
    6644:	70 40       	sbci	r23, 0x00	; 0
    6646:	01 10       	cpse	r0, r1
    6648:	d8 f7       	brcc	.-10     	; 0x6640 <strnlen_P+0x2>
    664a:	80 95       	com	r24
    664c:	90 95       	com	r25
    664e:	8e 0f       	add	r24, r30
    6650:	9f 1f       	adc	r25, r31
    6652:	08 95       	ret

00006654 <strnlen>:
    6654:	fc 01       	movw	r30, r24
    6656:	61 50       	subi	r22, 0x01	; 1
    6658:	70 40       	sbci	r23, 0x00	; 0
    665a:	01 90       	ld	r0, Z+
    665c:	01 10       	cpse	r0, r1
    665e:	d8 f7       	brcc	.-10     	; 0x6656 <strnlen+0x2>
    6660:	80 95       	com	r24
    6662:	90 95       	com	r25
    6664:	8e 0f       	add	r24, r30
    6666:	9f 1f       	adc	r25, r31
    6668:	08 95       	ret

0000666a <fputc>:
    666a:	0f 93       	push	r16
    666c:	1f 93       	push	r17
    666e:	cf 93       	push	r28
    6670:	df 93       	push	r29
    6672:	18 2f       	mov	r17, r24
    6674:	09 2f       	mov	r16, r25
    6676:	eb 01       	movw	r28, r22
    6678:	8b 81       	ldd	r24, Y+3	; 0x03
    667a:	81 fd       	sbrc	r24, 1
    667c:	03 c0       	rjmp	.+6      	; 0x6684 <fputc+0x1a>
    667e:	8f ef       	ldi	r24, 0xFF	; 255
    6680:	9f ef       	ldi	r25, 0xFF	; 255
    6682:	20 c0       	rjmp	.+64     	; 0x66c4 <fputc+0x5a>
    6684:	82 ff       	sbrs	r24, 2
    6686:	10 c0       	rjmp	.+32     	; 0x66a8 <fputc+0x3e>
    6688:	4e 81       	ldd	r20, Y+6	; 0x06
    668a:	5f 81       	ldd	r21, Y+7	; 0x07
    668c:	2c 81       	ldd	r18, Y+4	; 0x04
    668e:	3d 81       	ldd	r19, Y+5	; 0x05
    6690:	42 17       	cp	r20, r18
    6692:	53 07       	cpc	r21, r19
    6694:	7c f4       	brge	.+30     	; 0x66b4 <fputc+0x4a>
    6696:	e8 81       	ld	r30, Y
    6698:	f9 81       	ldd	r31, Y+1	; 0x01
    669a:	9f 01       	movw	r18, r30
    669c:	2f 5f       	subi	r18, 0xFF	; 255
    669e:	3f 4f       	sbci	r19, 0xFF	; 255
    66a0:	39 83       	std	Y+1, r19	; 0x01
    66a2:	28 83       	st	Y, r18
    66a4:	10 83       	st	Z, r17
    66a6:	06 c0       	rjmp	.+12     	; 0x66b4 <fputc+0x4a>
    66a8:	e8 85       	ldd	r30, Y+8	; 0x08
    66aa:	f9 85       	ldd	r31, Y+9	; 0x09
    66ac:	81 2f       	mov	r24, r17
    66ae:	09 95       	icall
    66b0:	89 2b       	or	r24, r25
    66b2:	29 f7       	brne	.-54     	; 0x667e <fputc+0x14>
    66b4:	2e 81       	ldd	r18, Y+6	; 0x06
    66b6:	3f 81       	ldd	r19, Y+7	; 0x07
    66b8:	2f 5f       	subi	r18, 0xFF	; 255
    66ba:	3f 4f       	sbci	r19, 0xFF	; 255
    66bc:	3f 83       	std	Y+7, r19	; 0x07
    66be:	2e 83       	std	Y+6, r18	; 0x06
    66c0:	81 2f       	mov	r24, r17
    66c2:	90 2f       	mov	r25, r16
    66c4:	df 91       	pop	r29
    66c6:	cf 91       	pop	r28
    66c8:	1f 91       	pop	r17
    66ca:	0f 91       	pop	r16
    66cc:	08 95       	ret

000066ce <__ultoa_invert>:
    66ce:	fa 01       	movw	r30, r20
    66d0:	aa 27       	eor	r26, r26
    66d2:	28 30       	cpi	r18, 0x08	; 8
    66d4:	51 f1       	breq	.+84     	; 0x672a <__ultoa_invert+0x5c>
    66d6:	20 31       	cpi	r18, 0x10	; 16
    66d8:	81 f1       	breq	.+96     	; 0x673a <__ultoa_invert+0x6c>
    66da:	e8 94       	clt
    66dc:	6f 93       	push	r22
    66de:	6e 7f       	andi	r22, 0xFE	; 254
    66e0:	6e 5f       	subi	r22, 0xFE	; 254
    66e2:	7f 4f       	sbci	r23, 0xFF	; 255
    66e4:	8f 4f       	sbci	r24, 0xFF	; 255
    66e6:	9f 4f       	sbci	r25, 0xFF	; 255
    66e8:	af 4f       	sbci	r26, 0xFF	; 255
    66ea:	b1 e0       	ldi	r27, 0x01	; 1
    66ec:	3e d0       	rcall	.+124    	; 0x676a <__ultoa_invert+0x9c>
    66ee:	b4 e0       	ldi	r27, 0x04	; 4
    66f0:	3c d0       	rcall	.+120    	; 0x676a <__ultoa_invert+0x9c>
    66f2:	67 0f       	add	r22, r23
    66f4:	78 1f       	adc	r23, r24
    66f6:	89 1f       	adc	r24, r25
    66f8:	9a 1f       	adc	r25, r26
    66fa:	a1 1d       	adc	r26, r1
    66fc:	68 0f       	add	r22, r24
    66fe:	79 1f       	adc	r23, r25
    6700:	8a 1f       	adc	r24, r26
    6702:	91 1d       	adc	r25, r1
    6704:	a1 1d       	adc	r26, r1
    6706:	6a 0f       	add	r22, r26
    6708:	71 1d       	adc	r23, r1
    670a:	81 1d       	adc	r24, r1
    670c:	91 1d       	adc	r25, r1
    670e:	a1 1d       	adc	r26, r1
    6710:	20 d0       	rcall	.+64     	; 0x6752 <__ultoa_invert+0x84>
    6712:	09 f4       	brne	.+2      	; 0x6716 <__ultoa_invert+0x48>
    6714:	68 94       	set
    6716:	3f 91       	pop	r19
    6718:	2a e0       	ldi	r18, 0x0A	; 10
    671a:	26 9f       	mul	r18, r22
    671c:	11 24       	eor	r1, r1
    671e:	30 19       	sub	r19, r0
    6720:	30 5d       	subi	r19, 0xD0	; 208
    6722:	31 93       	st	Z+, r19
    6724:	de f6       	brtc	.-74     	; 0x66dc <__ultoa_invert+0xe>
    6726:	cf 01       	movw	r24, r30
    6728:	08 95       	ret
    672a:	46 2f       	mov	r20, r22
    672c:	47 70       	andi	r20, 0x07	; 7
    672e:	40 5d       	subi	r20, 0xD0	; 208
    6730:	41 93       	st	Z+, r20
    6732:	b3 e0       	ldi	r27, 0x03	; 3
    6734:	0f d0       	rcall	.+30     	; 0x6754 <__ultoa_invert+0x86>
    6736:	c9 f7       	brne	.-14     	; 0x672a <__ultoa_invert+0x5c>
    6738:	f6 cf       	rjmp	.-20     	; 0x6726 <__ultoa_invert+0x58>
    673a:	46 2f       	mov	r20, r22
    673c:	4f 70       	andi	r20, 0x0F	; 15
    673e:	40 5d       	subi	r20, 0xD0	; 208
    6740:	4a 33       	cpi	r20, 0x3A	; 58
    6742:	18 f0       	brcs	.+6      	; 0x674a <__ultoa_invert+0x7c>
    6744:	49 5d       	subi	r20, 0xD9	; 217
    6746:	31 fd       	sbrc	r19, 1
    6748:	40 52       	subi	r20, 0x20	; 32
    674a:	41 93       	st	Z+, r20
    674c:	02 d0       	rcall	.+4      	; 0x6752 <__ultoa_invert+0x84>
    674e:	a9 f7       	brne	.-22     	; 0x673a <__ultoa_invert+0x6c>
    6750:	ea cf       	rjmp	.-44     	; 0x6726 <__ultoa_invert+0x58>
    6752:	b4 e0       	ldi	r27, 0x04	; 4
    6754:	a6 95       	lsr	r26
    6756:	97 95       	ror	r25
    6758:	87 95       	ror	r24
    675a:	77 95       	ror	r23
    675c:	67 95       	ror	r22
    675e:	ba 95       	dec	r27
    6760:	c9 f7       	brne	.-14     	; 0x6754 <__ultoa_invert+0x86>
    6762:	00 97       	sbiw	r24, 0x00	; 0
    6764:	61 05       	cpc	r22, r1
    6766:	71 05       	cpc	r23, r1
    6768:	08 95       	ret
    676a:	9b 01       	movw	r18, r22
    676c:	ac 01       	movw	r20, r24
    676e:	0a 2e       	mov	r0, r26
    6770:	06 94       	lsr	r0
    6772:	57 95       	ror	r21
    6774:	47 95       	ror	r20
    6776:	37 95       	ror	r19
    6778:	27 95       	ror	r18
    677a:	ba 95       	dec	r27
    677c:	c9 f7       	brne	.-14     	; 0x6770 <__ultoa_invert+0xa2>
    677e:	62 0f       	add	r22, r18
    6780:	73 1f       	adc	r23, r19
    6782:	84 1f       	adc	r24, r20
    6784:	95 1f       	adc	r25, r21
    6786:	a0 1d       	adc	r26, r0
    6788:	08 95       	ret

0000678a <__prologue_saves__>:
    678a:	2f 92       	push	r2
    678c:	3f 92       	push	r3
    678e:	4f 92       	push	r4
    6790:	5f 92       	push	r5
    6792:	6f 92       	push	r6
    6794:	7f 92       	push	r7
    6796:	8f 92       	push	r8
    6798:	9f 92       	push	r9
    679a:	af 92       	push	r10
    679c:	bf 92       	push	r11
    679e:	cf 92       	push	r12
    67a0:	df 92       	push	r13
    67a2:	ef 92       	push	r14
    67a4:	ff 92       	push	r15
    67a6:	0f 93       	push	r16
    67a8:	1f 93       	push	r17
    67aa:	cf 93       	push	r28
    67ac:	df 93       	push	r29
    67ae:	cd b7       	in	r28, 0x3d	; 61
    67b0:	de b7       	in	r29, 0x3e	; 62
    67b2:	ca 1b       	sub	r28, r26
    67b4:	db 0b       	sbc	r29, r27
    67b6:	0f b6       	in	r0, 0x3f	; 63
    67b8:	f8 94       	cli
    67ba:	de bf       	out	0x3e, r29	; 62
    67bc:	0f be       	out	0x3f, r0	; 63
    67be:	cd bf       	out	0x3d, r28	; 61
    67c0:	09 94       	ijmp

000067c2 <__epilogue_restores__>:
    67c2:	2a 88       	ldd	r2, Y+18	; 0x12
    67c4:	39 88       	ldd	r3, Y+17	; 0x11
    67c6:	48 88       	ldd	r4, Y+16	; 0x10
    67c8:	5f 84       	ldd	r5, Y+15	; 0x0f
    67ca:	6e 84       	ldd	r6, Y+14	; 0x0e
    67cc:	7d 84       	ldd	r7, Y+13	; 0x0d
    67ce:	8c 84       	ldd	r8, Y+12	; 0x0c
    67d0:	9b 84       	ldd	r9, Y+11	; 0x0b
    67d2:	aa 84       	ldd	r10, Y+10	; 0x0a
    67d4:	b9 84       	ldd	r11, Y+9	; 0x09
    67d6:	c8 84       	ldd	r12, Y+8	; 0x08
    67d8:	df 80       	ldd	r13, Y+7	; 0x07
    67da:	ee 80       	ldd	r14, Y+6	; 0x06
    67dc:	fd 80       	ldd	r15, Y+5	; 0x05
    67de:	0c 81       	ldd	r16, Y+4	; 0x04
    67e0:	1b 81       	ldd	r17, Y+3	; 0x03
    67e2:	aa 81       	ldd	r26, Y+2	; 0x02
    67e4:	b9 81       	ldd	r27, Y+1	; 0x01
    67e6:	ce 0f       	add	r28, r30
    67e8:	d1 1d       	adc	r29, r1
    67ea:	0f b6       	in	r0, 0x3f	; 63
    67ec:	f8 94       	cli
    67ee:	de bf       	out	0x3e, r29	; 62
    67f0:	0f be       	out	0x3f, r0	; 63
    67f2:	cd bf       	out	0x3d, r28	; 61
    67f4:	ed 01       	movw	r28, r26
    67f6:	08 95       	ret

000067f8 <_exit>:
    67f8:	f8 94       	cli

000067fa <__stop_program>:
    67fa:	ff cf       	rjmp	.-2      	; 0x67fa <__stop_program>
